; Listing generated by Microsoft (R) Optimizing Compiler Version 16.00.30319.01 

	TITLE	C:\Users\am\Desktop\tommyds-1.4\benchmark.cc
	.686P
	.XMM
	include listing.inc
	.model	flat

INCLUDELIB OLDNAMES

PUBLIC	??_R4length_error@std@@6B@			; std::length_error::`RTTI Complete Object Locator'
PUBLIC	??_R3length_error@std@@8			; std::length_error::`RTTI Class Hierarchy Descriptor'
PUBLIC	??_R2length_error@std@@8			; std::length_error::`RTTI Base Class Array'
PUBLIC	??_R1A@?0A@EA@length_error@std@@8		; std::length_error::`RTTI Base Class Descriptor at (0,-1,0,64)'
PUBLIC	??_R4logic_error@std@@6B@			; std::logic_error::`RTTI Complete Object Locator'
PUBLIC	??_R3logic_error@std@@8				; std::logic_error::`RTTI Class Hierarchy Descriptor'
PUBLIC	??_R2logic_error@std@@8				; std::logic_error::`RTTI Base Class Array'
PUBLIC	??_R1A@?0A@EA@logic_error@std@@8		; std::logic_error::`RTTI Base Class Descriptor at (0,-1,0,64)'
PUBLIC	??_R4bad_alloc@std@@6B@				; std::bad_alloc::`RTTI Complete Object Locator'
PUBLIC	??_R3bad_alloc@std@@8				; std::bad_alloc::`RTTI Class Hierarchy Descriptor'
PUBLIC	??_R2bad_alloc@std@@8				; std::bad_alloc::`RTTI Base Class Array'
PUBLIC	??_R1A@?0A@EA@exception@std@@8			; std::exception::`RTTI Base Class Descriptor at (0,-1,0,64)'
PUBLIC	??_R3exception@std@@8				; std::exception::`RTTI Class Hierarchy Descriptor'
PUBLIC	??_R2exception@std@@8				; std::exception::`RTTI Base Class Array'
PUBLIC	??_R1A@?0A@EA@bad_alloc@std@@8			; std::bad_alloc::`RTTI Base Class Descriptor at (0,-1,0,64)'
PUBLIC	?tommy_le_uint32_read@@YAIPBX@Z			; tommy_le_uint32_read
PUBLIC	_tommy_list_tail
PUBLIC	_tommy_list_empty
PUBLIC	_tommy_ctz_u32
PUBLIC	?tommy_chain_splice@@YAXPAUtommy_node_struct@@000@Z ; tommy_chain_splice
PUBLIC	?tommy_chain_concat@@YAXPAUtommy_node_struct@@0@Z ; tommy_chain_concat
PUBLIC	?tommy_chain_merge@@YAXPAUtommy_chain_struct@@0P6AHPBX1@Z@Z ; tommy_chain_merge
PUBLIC	?tommy_chain_merge_degenerated@@YAXPAUtommy_chain_struct@@0P6AHPBX1@Z@Z ; tommy_chain_merge_degenerated
PUBLIC	?tommy_chain_mergesort@@YAXPAUtommy_chain_struct@@P6AHPBX1@Z@Z ; tommy_chain_mergesort
PUBLIC	?tommy_list_set@@YAXPAPAUtommy_node_struct@@PAU1@1@Z ; tommy_list_set
PUBLIC	?tommy_trie_inplace_list_insert_first@@YAPAUtommy_trie_inplace_node_struct@@PAU1@@Z ; tommy_trie_inplace_list_insert_first
PUBLIC	?tommy_trie_inplace_list_insert_tail_not_empty@@YAXPAUtommy_trie_inplace_node_struct@@0@Z ; tommy_trie_inplace_list_insert_tail_not_empty
PUBLIC	?tommy_trie_inplace_list_remove@@YAXPAPAUtommy_trie_inplace_node_struct@@PAU1@@Z ; tommy_trie_inplace_list_remove
PUBLIC	_tommy_roundup_pow2_u32
PUBLIC	?hashdyn_grow_step@@YAXPAUtommy_hashdyn_struct@@@Z ; hashdyn_grow_step
PUBLIC	?hashdyn_shrink_step@@YAXPAUtommy_hashdyn_struct@@@Z ; hashdyn_shrink_step
PUBLIC	_tommy_list_insert_tail
PUBLIC	_tommy_list_insert_first
PUBLIC	_tommy_list_insert_tail_not_empty
PUBLIC	?hashlin_grow_step@@YAXPAUtommy_hashlin_struct@@@Z ; hashlin_grow_step
PUBLIC	_tommy_list_head
PUBLIC	_tommy_list_remove_existing
PUBLIC	?tommy_hashlin_bucket_ptr@@YAPAPAUtommy_node_struct@@PAUtommy_hashlin_struct@@I@Z ; tommy_hashlin_bucket_ptr
PUBLIC	_tommy_ilog2_u32
PUBLIC	?tommy_hashlin_pos@@YAPAPAUtommy_node_struct@@PAUtommy_hashlin_struct@@I@Z ; tommy_hashlin_pos
PUBLIC	?hashlin_shrink_step@@YAXPAUtommy_hashlin_struct@@@Z ; hashlin_shrink_step
PUBLIC	??0?$libc_allocator_with_realloc@U?$pair@$$CBIPAUgoogle_object@@@std@@@google@@QAE@XZ ; google::libc_allocator_with_realloc<std::pair<unsigned int const ,google_object *> >::libc_allocator_with_realloc<std::pair<unsigned int const ,google_object *> >
PUBLIC	?set_enlarge_factor@?$sh_hashtable_settings@IVcpp_tommy_inthash_u32@@I$03@@QAEXM@Z ; sh_hashtable_settings<unsigned int,cpp_tommy_inthash_u32,unsigned int,4>::set_enlarge_factor
PUBLIC	?set_shrink_factor@?$sh_hashtable_settings@IVcpp_tommy_inthash_u32@@I$03@@QAEXM@Z ; sh_hashtable_settings<unsigned int,cpp_tommy_inthash_u32,unsigned int,4>::set_shrink_factor
PUBLIC	??0?$sh_hashtable_settings@IVcpp_tommy_inthash_u32@@I$03@@QAE@ABVcpp_tommy_inthash_u32@@MM@Z ; sh_hashtable_settings<unsigned int,cpp_tommy_inthash_u32,unsigned int,4>::sh_hashtable_settings<unsigned int,cpp_tommy_inthash_u32,unsigned int,4>
PUBLIC	??0Settings@?$dense_hashtable@U?$pair@$$CBIPAUgoogle_object@@@std@@IVcpp_tommy_inthash_u32@@USelectKey@?$dense_hash_map@IPAUgoogle_object@@Vcpp_tommy_inthash_u32@@U?$equal_to@I@std@@V?$libc_allocator_with_realloc@U?$pair@$$CBIPAUgoogle_object@@@std@@@google@@@google@@USetKey@56@U?$equal_to@I@2@V?$libc_allocator_with_realloc@U?$pair@$$CBIPAUgoogle_object@@@std@@@6@@google@@QAE@ABVcpp_tommy_inthash_u32@@@Z ; google::dense_hashtable<std::pair<unsigned int const ,google_object *>,unsigned int,cpp_tommy_inthash_u32,google::dense_hash_map<unsigned int,google_object *,cpp_tommy_inthash_u32,std::equal_to<unsigned int>,google::libc_allocator_with_realloc<std::pair<unsigned int const ,google_object *> > >::SelectKey,google::dense_hash_map<unsigned int,google_object *,cpp_tommy_inthash_u32,std::equal_to<unsigned int>,google::libc_allocator_with_realloc<std::pair<unsigned int const ,google_object *> > >::SetKey,std::equal_to<unsigned int>,google::libc_allocator_with_realloc<std::pair<unsigned int const ,google_object *> > >::Settings::Settings
PUBLIC	??0KeyInfo@?$dense_hashtable@U?$pair@$$CBIPAUgoogle_object@@@std@@IVcpp_tommy_inthash_u32@@USelectKey@?$dense_hash_map@IPAUgoogle_object@@Vcpp_tommy_inthash_u32@@U?$equal_to@I@std@@V?$libc_allocator_with_realloc@U?$pair@$$CBIPAUgoogle_object@@@std@@@google@@@google@@USetKey@56@U?$equal_to@I@2@V?$libc_allocator_with_realloc@U?$pair@$$CBIPAUgoogle_object@@@std@@@6@@google@@QAE@ABUSelectKey@?$dense_hash_map@IPAUgoogle_object@@Vcpp_tommy_inthash_u32@@U?$equal_to@I@std@@V?$libc_allocator_with_realloc@U?$pair@$$CBIPAUgoogle_object@@@std@@@google@@@2@ABUSetKey@42@ABU?$equal_to@I@std@@@Z ; google::dense_hashtable<std::pair<unsigned int const ,google_object *>,unsigned int,cpp_tommy_inthash_u32,google::dense_hash_map<unsigned int,google_object *,cpp_tommy_inthash_u32,std::equal_to<unsigned int>,google::libc_allocator_with_realloc<std::pair<unsigned int const ,google_object *> > >::SelectKey,google::dense_hash_map<unsigned int,google_object *,cpp_tommy_inthash_u32,std::equal_to<unsigned int>,google::libc_allocator_with_realloc<std::pair<unsigned int const ,google_object *> > >::SetKey,std::equal_to<unsigned int>,google::libc_allocator_with_realloc<std::pair<unsigned int const ,google_object *> > >::KeyInfo::KeyInfo
PUBLIC	??0?$alloc_impl@V?$libc_allocator_with_realloc@U?$pair@$$CBIPAUgoogle_object@@@std@@@google@@@?$dense_hashtable@U?$pair@$$CBIPAUgoogle_object@@@std@@IVcpp_tommy_inthash_u32@@USelectKey@?$dense_hash_map@IPAUgoogle_object@@Vcpp_tommy_inthash_u32@@U?$equal_to@I@std@@V?$libc_allocator_with_realloc@U?$pair@$$CBIPAUgoogle_object@@@std@@@google@@@google@@USetKey@56@U?$equal_to@I@2@V?$libc_allocator_with_realloc@U?$pair@$$CBIPAUgoogle_object@@@std@@@6@@google@@QAE@ABV?$libc_allocator_with_realloc@U?$pair@$$CBIPAUgoogle_object@@@std@@@2@@Z ; google::dense_hashtable<std::pair<unsigned int const ,google_object *>,unsigned int,cpp_tommy_inthash_u32,google::dense_hash_map<unsigned int,google_object *,cpp_tommy_inthash_u32,std::equal_to<unsigned int>,google::libc_allocator_with_realloc<std::pair<unsigned int const ,google_object *> > >::SelectKey,google::dense_hash_map<unsigned int,google_object *,cpp_tommy_inthash_u32,std::equal_to<unsigned int>,google::libc_allocator_with_realloc<std::pair<unsigned int const ,google_object *> > >::SetKey,std::equal_to<unsigned int>,google::libc_allocator_with_realloc<std::pair<unsigned int const ,google_object *> > >::alloc_impl<google::libc_allocator_with_realloc<std::pair<unsigned int const ,google_object *> > >::alloc_impl<google::libc_allocator_with_realloc<std::pair<unsigned int const ,google_object *> > >
PUBLIC	??0ValInfo@?$dense_hashtable@U?$pair@$$CBIPAUgoogle_object@@@std@@IVcpp_tommy_inthash_u32@@USelectKey@?$dense_hash_map@IPAUgoogle_object@@Vcpp_tommy_inthash_u32@@U?$equal_to@I@std@@V?$libc_allocator_with_realloc@U?$pair@$$CBIPAUgoogle_object@@@std@@@google@@@google@@USetKey@56@U?$equal_to@I@2@V?$libc_allocator_with_realloc@U?$pair@$$CBIPAUgoogle_object@@@std@@@6@@google@@QAE@ABV?$alloc_impl@V?$libc_allocator_with_realloc@U?$pair@$$CBIPAUgoogle_object@@@std@@@google@@@12@@Z ; google::dense_hashtable<std::pair<unsigned int const ,google_object *>,unsigned int,cpp_tommy_inthash_u32,google::dense_hash_map<unsigned int,google_object *,cpp_tommy_inthash_u32,std::equal_to<unsigned int>,google::libc_allocator_with_realloc<std::pair<unsigned int const ,google_object *> > >::SelectKey,google::dense_hash_map<unsigned int,google_object *,cpp_tommy_inthash_u32,std::equal_to<unsigned int>,google::libc_allocator_with_realloc<std::pair<unsigned int const ,google_object *> > >::SetKey,std::equal_to<unsigned int>,google::libc_allocator_with_realloc<std::pair<unsigned int const ,google_object *> > >::ValInfo::ValInfo
PUBLIC	??0?$dense_hashtable@U?$pair@$$CBIPAUgoogle_object@@@std@@IVcpp_tommy_inthash_u32@@USelectKey@?$dense_hash_map@IPAUgoogle_object@@Vcpp_tommy_inthash_u32@@U?$equal_to@I@std@@V?$libc_allocator_with_realloc@U?$pair@$$CBIPAUgoogle_object@@@std@@@google@@@google@@USetKey@56@U?$equal_to@I@2@V?$libc_allocator_with_realloc@U?$pair@$$CBIPAUgoogle_object@@@std@@@6@@google@@QAE@IABVcpp_tommy_inthash_u32@@ABU?$equal_to@I@std@@ABUSelectKey@?$dense_hash_map@IPAUgoogle_object@@Vcpp_tommy_inthash_u32@@U?$equal_to@I@std@@V?$libc_allocator_with_realloc@U?$pair@$$CBIPAUgoogle_object@@@std@@@google@@@1@ABUSetKey@61@ABV?$libc_allocator_with_realloc@U?$pair@$$CBIPAUgoogle_object@@@std@@@1@@Z ; google::dense_hashtable<std::pair<unsigned int const ,google_object *>,unsigned int,cpp_tommy_inthash_u32,google::dense_hash_map<unsigned int,google_object *,cpp_tommy_inthash_u32,std::equal_to<unsigned int>,google::libc_allocator_with_realloc<std::pair<unsigned int const ,google_object *> > >::SelectKey,google::dense_hash_map<unsigned int,google_object *,cpp_tommy_inthash_u32,std::equal_to<unsigned int>,google::libc_allocator_with_realloc<std::pair<unsigned int const ,google_object *> > >::SetKey,std::equal_to<unsigned int>,google::libc_allocator_with_realloc<std::pair<unsigned int const ,google_object *> > >::dense_hashtable<std::pair<unsigned int const ,google_object *>,unsigned int,cpp_tommy_inthash_u32,google::dense_hash_map<unsigned int,google_object *,cpp_tommy_inthash_u32,std::equal_to<unsigned int>,google::libc_allocator_with_realloc<std::pair<unsigned int const ,google_object *> > >::SelectKey,google::dense_hash_map<unsigned int,google_object *,cpp_tommy_inthash_u32,std::equal_to<unsigned int>,google::libc_allocator_with_realloc<std::pair<unsigned int const ,google_object *> > >::SetKey,std::equal_to<unsigned int>,google::libc_allocator_with_realloc<std::pair<unsigned int const ,google_object *> > >
PUBLIC	??0?$dense_hash_map@IPAUgoogle_object@@Vcpp_tommy_inthash_u32@@U?$equal_to@I@std@@V?$libc_allocator_with_realloc@U?$pair@$$CBIPAUgoogle_object@@@std@@@google@@@google@@QAE@IABVcpp_tommy_inthash_u32@@ABU?$equal_to@I@std@@ABV?$libc_allocator_with_realloc@U?$pair@$$CBIPAUgoogle_object@@@std@@@1@@Z ; google::dense_hash_map<unsigned int,google_object *,cpp_tommy_inthash_u32,std::equal_to<unsigned int>,google::libc_allocator_with_realloc<std::pair<unsigned int const ,google_object *> > >::dense_hash_map<unsigned int,google_object *,cpp_tommy_inthash_u32,std::equal_to<unsigned int>,google::libc_allocator_with_realloc<std::pair<unsigned int const ,google_object *> > >
PUBLIC	?set_use_empty@?$sh_hashtable_settings@IVcpp_tommy_inthash_u32@@I$03@@QAEX_N@Z ; sh_hashtable_settings<unsigned int,cpp_tommy_inthash_u32,unsigned int,4>::set_use_empty
PUBLIC	?set_empty_key@?$dense_hashtable@U?$pair@$$CBIPAUgoogle_object@@@std@@IVcpp_tommy_inthash_u32@@USelectKey@?$dense_hash_map@IPAUgoogle_object@@Vcpp_tommy_inthash_u32@@U?$equal_to@I@std@@V?$libc_allocator_with_realloc@U?$pair@$$CBIPAUgoogle_object@@@std@@@google@@@google@@USetKey@56@U?$equal_to@I@2@V?$libc_allocator_with_realloc@U?$pair@$$CBIPAUgoogle_object@@@std@@@6@@google@@QAEXABU?$pair@$$CBIPAUgoogle_object@@@std@@@Z ; google::dense_hashtable<std::pair<unsigned int const ,google_object *>,unsigned int,cpp_tommy_inthash_u32,google::dense_hash_map<unsigned int,google_object *,cpp_tommy_inthash_u32,std::equal_to<unsigned int>,google::libc_allocator_with_realloc<std::pair<unsigned int const ,google_object *> > >::SelectKey,google::dense_hash_map<unsigned int,google_object *,cpp_tommy_inthash_u32,std::equal_to<unsigned int>,google::libc_allocator_with_realloc<std::pair<unsigned int const ,google_object *> > >::SetKey,std::equal_to<unsigned int>,google::libc_allocator_with_realloc<std::pair<unsigned int const ,google_object *> > >::set_empty_key
PUBLIC	??0?$_Pair_base@$$CBIPAUgoogle_object@@@std@@QAE@ABI$$QAPAUgoogle_object@@@Z ; std::_Pair_base<unsigned int const ,google_object *>::_Pair_base<unsigned int const ,google_object *>
PUBLIC	??$move@AAPAUgoogle_object@@@std@@YA$$QAPAUgoogle_object@@AAPAU1@@Z ; std::move<google_object * &>
PUBLIC	??0?$pair@$$CBIPAUgoogle_object@@@std@@QAE@ABI$$QAPAUgoogle_object@@@Z ; std::pair<unsigned int const ,google_object *>::pair<unsigned int const ,google_object *>
PUBLIC	?set_empty_key@?$dense_hash_map@IPAUgoogle_object@@Vcpp_tommy_inthash_u32@@U?$equal_to@I@std@@V?$libc_allocator_with_realloc@U?$pair@$$CBIPAUgoogle_object@@@std@@@google@@@google@@QAEXABI@Z ; google::dense_hash_map<unsigned int,google_object *,cpp_tommy_inthash_u32,std::equal_to<unsigned int>,google::libc_allocator_with_realloc<std::pair<unsigned int const ,google_object *> > >::set_empty_key
PUBLIC	?squash_deleted@?$dense_hashtable@U?$pair@$$CBIPAUgoogle_object@@@std@@IVcpp_tommy_inthash_u32@@USelectKey@?$dense_hash_map@IPAUgoogle_object@@Vcpp_tommy_inthash_u32@@U?$equal_to@I@std@@V?$libc_allocator_with_realloc@U?$pair@$$CBIPAUgoogle_object@@@std@@@google@@@google@@USetKey@56@U?$equal_to@I@2@V?$libc_allocator_with_realloc@U?$pair@$$CBIPAUgoogle_object@@@std@@@6@@google@@AAEXXZ ; google::dense_hashtable<std::pair<unsigned int const ,google_object *>,unsigned int,cpp_tommy_inthash_u32,google::dense_hash_map<unsigned int,google_object *,cpp_tommy_inthash_u32,std::equal_to<unsigned int>,google::libc_allocator_with_realloc<std::pair<unsigned int const ,google_object *> > >::SelectKey,google::dense_hash_map<unsigned int,google_object *,cpp_tommy_inthash_u32,std::equal_to<unsigned int>,google::libc_allocator_with_realloc<std::pair<unsigned int const ,google_object *> > >::SetKey,std::equal_to<unsigned int>,google::libc_allocator_with_realloc<std::pair<unsigned int const ,google_object *> > >::squash_deleted
PUBLIC	?set_use_deleted@?$sh_hashtable_settings@IVcpp_tommy_inthash_u32@@I$03@@QAEX_N@Z ; sh_hashtable_settings<unsigned int,cpp_tommy_inthash_u32,unsigned int,4>::set_use_deleted
PUBLIC	?set_deleted_key@?$dense_hashtable@U?$pair@$$CBIPAUgoogle_object@@@std@@IVcpp_tommy_inthash_u32@@USelectKey@?$dense_hash_map@IPAUgoogle_object@@Vcpp_tommy_inthash_u32@@U?$equal_to@I@std@@V?$libc_allocator_with_realloc@U?$pair@$$CBIPAUgoogle_object@@@std@@@google@@@google@@USetKey@56@U?$equal_to@I@2@V?$libc_allocator_with_realloc@U?$pair@$$CBIPAUgoogle_object@@@std@@@6@@google@@QAEXABI@Z ; google::dense_hashtable<std::pair<unsigned int const ,google_object *>,unsigned int,cpp_tommy_inthash_u32,google::dense_hash_map<unsigned int,google_object *,cpp_tommy_inthash_u32,std::equal_to<unsigned int>,google::libc_allocator_with_realloc<std::pair<unsigned int const ,google_object *> > >::SelectKey,google::dense_hash_map<unsigned int,google_object *,cpp_tommy_inthash_u32,std::equal_to<unsigned int>,google::libc_allocator_with_realloc<std::pair<unsigned int const ,google_object *> > >::SetKey,std::equal_to<unsigned int>,google::libc_allocator_with_realloc<std::pair<unsigned int const ,google_object *> > >::set_deleted_key
PUBLIC	?set_deleted_key@?$dense_hash_map@IPAUgoogle_object@@Vcpp_tommy_inthash_u32@@U?$equal_to@I@std@@V?$libc_allocator_with_realloc@U?$pair@$$CBIPAUgoogle_object@@@std@@@google@@@google@@QAEXABI@Z ; google::dense_hash_map<unsigned int,google_object *,cpp_tommy_inthash_u32,std::equal_to<unsigned int>,google::libc_allocator_with_realloc<std::pair<unsigned int const ,google_object *> > >::set_deleted_key
PUBLIC	??0?$btree_key_compare_to_adapter@U?$less@I@std@@@btree@@QAE@XZ ; btree::btree_key_compare_to_adapter<std::less<unsigned int> >::btree_key_compare_to_adapter<std::less<unsigned int> >
PUBLIC	??0?$allocator@U?$pair@$$CBIPAUgoogle_object@@@std@@@std@@QAE@XZ ; std::allocator<std::pair<unsigned int const ,google_object *> >::allocator<std::pair<unsigned int const ,google_object *> >
PUBLIC	??0?$allocator@D@std@@QAE@ABV01@@Z		; std::allocator<char>::allocator<char>
PUBLIC	??0?$empty_base_handle@V?$allocator@D@std@@PAV?$btree_node@U?$btree_map_params@IPAUgoogle_object@@U?$less@I@std@@V?$allocator@U?$pair@$$CBIPAUgoogle_object@@@std@@@3@$0BAA@@btree@@@btree@@@?$btree@U?$btree_map_params@IPAUgoogle_object@@U?$less@I@std@@V?$allocator@U?$pair@$$CBIPAUgoogle_object@@@std@@@3@$0BAA@@0@@btree@@QAE@ABV?$allocator@D@std@@ABQAV?$btree_node@U?$btree_map_params@IPAUgoogle_object@@U?$less@I@std@@V?$allocator@U?$pair@$$CBIPAUgoogle_object@@@std@@@3@$0BAA@@btree@@@2@@Z ; btree::btree<btree::btree_map_params<unsigned int,google_object *,std::less<unsigned int>,std::allocator<std::pair<unsigned int const ,google_object *> >,256> >::empty_base_handle<std::allocator<char>,btree::btree_node<btree::btree_map_params<unsigned int,google_object *,std::less<unsigned int>,std::allocator<std::pair<unsigned int const ,google_object *> >,256> > *>::empty_base_handle<std::allocator<char>,btree::btree_node<btree::btree_map_params<unsigned int,google_object *,std::less<unsigned int>,std::allocator<std::pair<unsigned int const ,google_object *> >,256> > *>
PUBLIC	??$?0U?$pair@$$CBIPAUgoogle_object@@@std@@@?$allocator@D@std@@QAE@ABV?$allocator@U?$pair@$$CBIPAUgoogle_object@@@std@@@1@@Z ; std::allocator<char>::allocator<char><std::pair<unsigned int const ,google_object *> >
PUBLIC	??0?$btree@U?$btree_map_params@IPAUgoogle_object@@U?$less@I@std@@V?$allocator@U?$pair@$$CBIPAUgoogle_object@@@std@@@3@$0BAA@@0@@btree@@QAE@ABU?$btree_key_compare_to_adapter@U?$less@I@std@@@1@ABV?$allocator@U?$pair@$$CBIPAUgoogle_object@@@std@@@std@@@Z ; btree::btree<btree::btree_map_params<unsigned int,google_object *,std::less<unsigned int>,std::allocator<std::pair<unsigned int const ,google_object *> >,256> >::btree<btree::btree_map_params<unsigned int,google_object *,std::less<unsigned int>,std::allocator<std::pair<unsigned int const ,google_object *> >,256> >
PUBLIC	??0?$btree_container@V?$btree@U?$btree_map_params@IPAUgoogle_object@@U?$less@I@std@@V?$allocator@U?$pair@$$CBIPAUgoogle_object@@@std@@@3@$0BAA@@0@@btree@@@btree@@QAE@ABU?$btree_key_compare_to_adapter@U?$less@I@std@@@1@ABV?$allocator@U?$pair@$$CBIPAUgoogle_object@@@std@@@std@@@Z ; btree::btree_container<btree::btree<btree::btree_map_params<unsigned int,google_object *,std::less<unsigned int>,std::allocator<std::pair<unsigned int const ,google_object *> >,256> > >::btree_container<btree::btree<btree::btree_map_params<unsigned int,google_object *,std::less<unsigned int>,std::allocator<std::pair<unsigned int const ,google_object *> >,256> > >
PUBLIC	??0?$btree_unique_container@V?$btree@U?$btree_map_params@IPAUgoogle_object@@U?$less@I@std@@V?$allocator@U?$pair@$$CBIPAUgoogle_object@@@std@@@3@$0BAA@@0@@btree@@@btree@@QAE@ABU?$btree_key_compare_to_adapter@U?$less@I@std@@@1@ABV?$allocator@U?$pair@$$CBIPAUgoogle_object@@@std@@@std@@@Z ; btree::btree_unique_container<btree::btree<btree::btree_map_params<unsigned int,google_object *,std::less<unsigned int>,std::allocator<std::pair<unsigned int const ,google_object *> >,256> > >::btree_unique_container<btree::btree<btree::btree_map_params<unsigned int,google_object *,std::less<unsigned int>,std::allocator<std::pair<unsigned int const ,google_object *> >,256> > >
PUBLIC	??0?$btree_map_container@V?$btree@U?$btree_map_params@IPAUgoogle_object@@U?$less@I@std@@V?$allocator@U?$pair@$$CBIPAUgoogle_object@@@std@@@3@$0BAA@@0@@btree@@@btree@@QAE@ABU?$btree_key_compare_to_adapter@U?$less@I@std@@@1@ABV?$allocator@U?$pair@$$CBIPAUgoogle_object@@@std@@@std@@@Z ; btree::btree_map_container<btree::btree<btree::btree_map_params<unsigned int,google_object *,std::less<unsigned int>,std::allocator<std::pair<unsigned int const ,google_object *> >,256> > >::btree_map_container<btree::btree<btree::btree_map_params<unsigned int,google_object *,std::less<unsigned int>,std::allocator<std::pair<unsigned int const ,google_object *> >,256> > >
PUBLIC	??0?$btree_map@IPAUgoogle_object@@U?$less@I@std@@V?$allocator@U?$pair@$$CBIPAUgoogle_object@@@std@@@3@$0BAA@@btree@@QAE@ABU?$btree_key_compare_to_adapter@U?$less@I@std@@@1@ABV?$allocator@U?$pair@$$CBIPAUgoogle_object@@@std@@@std@@@Z ; btree::btree_map<unsigned int,google_object *,std::less<unsigned int>,std::allocator<std::pair<unsigned int const ,google_object *> >,256>::btree_map<unsigned int,google_object *,std::less<unsigned int>,std::allocator<std::pair<unsigned int const ,google_object *> >,256>
PUBLIC	??0?$_Tmap_traits@IPAUcpp_object@@U?$less@I@std@@V?$allocator@U?$pair@$$CBIPAUcpp_object@@@std@@@3@$0A@@std@@QAE@U?$less@I@1@@Z ; std::_Tmap_traits<unsigned int,cpp_object *,std::less<unsigned int>,std::allocator<std::pair<unsigned int const ,cpp_object *> >,0>::_Tmap_traits<unsigned int,cpp_object *,std::less<unsigned int>,std::allocator<std::pair<unsigned int const ,cpp_object *> >,0>
PUBLIC	??$?0U?$pair@$$CBIPAUcpp_object@@@std@@@?$allocator@U_Node@?$_Tree_nod@V?$_Tmap_traits@IPAUcpp_object@@U?$less@I@std@@V?$allocator@U?$pair@$$CBIPAUcpp_object@@@std@@@3@$0A@@std@@@std@@@std@@QAE@ABV?$allocator@U?$pair@$$CBIPAUcpp_object@@@std@@@1@@Z ; std::allocator<std::_Tree_nod<std::_Tmap_traits<unsigned int,cpp_object *,std::less<unsigned int>,std::allocator<std::pair<unsigned int const ,cpp_object *> >,0> >::_Node>::allocator<std::_Tree_nod<std::_Tmap_traits<unsigned int,cpp_object *,std::less<unsigned int>,std::allocator<std::pair<unsigned int const ,cpp_object *> >,0> >::_Node><std::pair<unsigned int const ,cpp_object *> >
PUBLIC	??0?$_Tree_nod@V?$_Tmap_traits@IPAUcpp_object@@U?$less@I@std@@V?$allocator@U?$pair@$$CBIPAUcpp_object@@@std@@@3@$0A@@std@@@std@@QAE@ABU?$less@I@1@V?$allocator@U?$pair@$$CBIPAUcpp_object@@@std@@@1@@Z ; std::_Tree_nod<std::_Tmap_traits<unsigned int,cpp_object *,std::less<unsigned int>,std::allocator<std::pair<unsigned int const ,cpp_object *> >,0> >::_Tree_nod<std::_Tmap_traits<unsigned int,cpp_object *,std::less<unsigned int>,std::allocator<std::pair<unsigned int const ,cpp_object *> >,0> >
PUBLIC	??0?$_Tree_val@V?$_Tmap_traits@IPAUcpp_object@@U?$less@I@std@@V?$allocator@U?$pair@$$CBIPAUcpp_object@@@std@@@3@$0A@@std@@@std@@QAE@ABU?$less@I@1@V?$allocator@U?$pair@$$CBIPAUcpp_object@@@std@@@1@@Z ; std::_Tree_val<std::_Tmap_traits<unsigned int,cpp_object *,std::less<unsigned int>,std::allocator<std::pair<unsigned int const ,cpp_object *> >,0> >::_Tree_val<std::_Tmap_traits<unsigned int,cpp_object *,std::less<unsigned int>,std::allocator<std::pair<unsigned int const ,cpp_object *> >,0> >
PUBLIC	??0?$_Tree@V?$_Tmap_traits@IPAUcpp_object@@U?$less@I@std@@V?$allocator@U?$pair@$$CBIPAUcpp_object@@@std@@@3@$0A@@std@@@std@@QAE@ABU?$less@I@1@ABV?$allocator@U?$pair@$$CBIPAUcpp_object@@@std@@@1@@Z ; std::_Tree<std::_Tmap_traits<unsigned int,cpp_object *,std::less<unsigned int>,std::allocator<std::pair<unsigned int const ,cpp_object *> >,0> >::_Tree<std::_Tmap_traits<unsigned int,cpp_object *,std::less<unsigned int>,std::allocator<std::pair<unsigned int const ,cpp_object *> >,0> >
PUBLIC	??0?$map@IPAUcpp_object@@U?$less@I@std@@V?$allocator@U?$pair@$$CBIPAUcpp_object@@@std@@@3@@std@@QAE@XZ ; std::map<unsigned int,cpp_object *,std::less<unsigned int>,std::allocator<std::pair<unsigned int const ,cpp_object *> > >::map<unsigned int,cpp_object *,std::less<unsigned int>,std::allocator<std::pair<unsigned int const ,cpp_object *> > >
PUBLIC	??0?$allocator@U?$pair@$$CBIPAUcpp_object@@@std@@@std@@QAE@XZ ; std::allocator<std::pair<unsigned int const ,cpp_object *> >::allocator<std::pair<unsigned int const ,cpp_object *> >
PUBLIC	??0?$_Hash_compare@IVcpp_tommy_inthash_u32@@U?$equal_to@I@std@@@std@@QAE@XZ ; std::_Hash_compare<unsigned int,cpp_tommy_inthash_u32,std::equal_to<unsigned int> >::_Hash_compare<unsigned int,cpp_tommy_inthash_u32,std::equal_to<unsigned int> >
PUBLIC	??0?$_Umap_traits@IPAUcpp_object@@V?$_Hash_compare@IVcpp_tommy_inthash_u32@@U?$equal_to@I@std@@@std@@V?$allocator@U?$pair@$$CBIPAUcpp_object@@@std@@@3@$0A@@tr1@std@@QAE@ABV?$_Hash_compare@IVcpp_tommy_inthash_u32@@U?$equal_to@I@std@@@2@@Z ; std::tr1::_Umap_traits<unsigned int,cpp_object *,std::_Hash_compare<unsigned int,cpp_tommy_inthash_u32,std::equal_to<unsigned int> >,std::allocator<std::pair<unsigned int const ,cpp_object *> >,0>::_Umap_traits<unsigned int,cpp_object *,std::_Hash_compare<unsigned int,cpp_tommy_inthash_u32,std::equal_to<unsigned int> >,std::allocator<std::pair<unsigned int const ,cpp_object *> >,0>
PUBLIC	??0?$allocator@U?$pair@$$CBIPAUcpp_object@@@std@@@std@@QAE@ABV01@@Z ; std::allocator<std::pair<unsigned int const ,cpp_object *> >::allocator<std::pair<unsigned int const ,cpp_object *> >
PUBLIC	??$?0U?$pair@$$CBIPAUcpp_object@@@std@@@?$allocator@U_Node@?$_List_nod@U?$pair@$$CBIPAUcpp_object@@@std@@V?$allocator@U?$pair@$$CBIPAUcpp_object@@@std@@@2@@std@@@std@@QAE@ABV?$allocator@U?$pair@$$CBIPAUcpp_object@@@std@@@1@@Z ; std::allocator<std::_List_nod<std::pair<unsigned int const ,cpp_object *>,std::allocator<std::pair<unsigned int const ,cpp_object *> > >::_Node>::allocator<std::_List_nod<std::pair<unsigned int const ,cpp_object *>,std::allocator<std::pair<unsigned int const ,cpp_object *> > >::_Node><std::pair<unsigned int const ,cpp_object *> >
PUBLIC	??0?$_List_nod@U?$pair@$$CBIPAUcpp_object@@@std@@V?$allocator@U?$pair@$$CBIPAUcpp_object@@@std@@@2@@std@@QAE@V?$allocator@U?$pair@$$CBIPAUcpp_object@@@std@@@1@@Z ; std::_List_nod<std::pair<unsigned int const ,cpp_object *>,std::allocator<std::pair<unsigned int const ,cpp_object *> > >::_List_nod<std::pair<unsigned int const ,cpp_object *>,std::allocator<std::pair<unsigned int const ,cpp_object *> > >
PUBLIC	??0?$_List_val@U?$pair@$$CBIPAUcpp_object@@@std@@V?$allocator@U?$pair@$$CBIPAUcpp_object@@@std@@@2@@std@@QAE@V?$allocator@U?$pair@$$CBIPAUcpp_object@@@std@@@1@@Z ; std::_List_val<std::pair<unsigned int const ,cpp_object *>,std::allocator<std::pair<unsigned int const ,cpp_object *> > >::_List_val<std::pair<unsigned int const ,cpp_object *>,std::allocator<std::pair<unsigned int const ,cpp_object *> > >
PUBLIC	??0?$list@U?$pair@$$CBIPAUcpp_object@@@std@@V?$allocator@U?$pair@$$CBIPAUcpp_object@@@std@@@2@@std@@QAE@ABV?$allocator@U?$pair@$$CBIPAUcpp_object@@@std@@@1@@Z ; std::list<std::pair<unsigned int const ,cpp_object *>,std::allocator<std::pair<unsigned int const ,cpp_object *> > >::list<std::pair<unsigned int const ,cpp_object *>,std::allocator<std::pair<unsigned int const ,cpp_object *> > >
PUBLIC	??0?$allocator@V?$_List_iterator@V?$_List_val@U?$pair@$$CBIPAUcpp_object@@@std@@V?$allocator@U?$pair@$$CBIPAUcpp_object@@@std@@@2@@std@@@std@@@std@@QAE@ABV01@@Z ; std::allocator<std::_List_iterator<std::_List_val<std::pair<unsigned int const ,cpp_object *>,std::allocator<std::pair<unsigned int const ,cpp_object *> > > > >::allocator<std::_List_iterator<std::_List_val<std::pair<unsigned int const ,cpp_object *>,std::allocator<std::pair<unsigned int const ,cpp_object *> > > > >
PUBLIC	??0?$_Vector_val@V?$_List_iterator@V?$_List_val@U?$pair@$$CBIPAUcpp_object@@@std@@V?$allocator@U?$pair@$$CBIPAUcpp_object@@@std@@@2@@std@@@std@@V?$allocator@V?$_List_iterator@V?$_List_val@U?$pair@$$CBIPAUcpp_object@@@std@@V?$allocator@U?$pair@$$CBIPAUcpp_object@@@std@@@2@@std@@@std@@@2@@std@@QAE@V?$allocator@V?$_List_iterator@V?$_List_val@U?$pair@$$CBIPAUcpp_object@@@std@@V?$allocator@U?$pair@$$CBIPAUcpp_object@@@std@@@2@@std@@@std@@@1@@Z ; std::_Vector_val<std::_List_iterator<std::_List_val<std::pair<unsigned int const ,cpp_object *>,std::allocator<std::pair<unsigned int const ,cpp_object *> > > >,std::allocator<std::_List_iterator<std::_List_val<std::pair<unsigned int const ,cpp_object *>,std::allocator<std::pair<unsigned int const ,cpp_object *> > > > > >::_Vector_val<std::_List_iterator<std::_List_val<std::pair<unsigned int const ,cpp_object *>,std::allocator<std::pair<unsigned int const ,cpp_object *> > > >,std::allocator<std::_List_iterator<std::_List_val<std::pair<unsigned int const ,cpp_object *>,std::allocator<std::pair<unsigned int const ,cpp_object *> > > > > >
PUBLIC	??0?$vector@V?$_List_iterator@V?$_List_val@U?$pair@$$CBIPAUcpp_object@@@std@@V?$allocator@U?$pair@$$CBIPAUcpp_object@@@std@@@2@@std@@@std@@V?$allocator@V?$_List_iterator@V?$_List_val@U?$pair@$$CBIPAUcpp_object@@@std@@V?$allocator@U?$pair@$$CBIPAUcpp_object@@@std@@@2@@std@@@std@@@2@@std@@QAE@ABV?$allocator@V?$_List_iterator@V?$_List_val@U?$pair@$$CBIPAUcpp_object@@@std@@V?$allocator@U?$pair@$$CBIPAUcpp_object@@@std@@@2@@std@@@std@@@1@@Z ; std::vector<std::_List_iterator<std::_List_val<std::pair<unsigned int const ,cpp_object *>,std::allocator<std::pair<unsigned int const ,cpp_object *> > > >,std::allocator<std::_List_iterator<std::_List_val<std::pair<unsigned int const ,cpp_object *>,std::allocator<std::pair<unsigned int const ,cpp_object *> > > > > >::vector<std::_List_iterator<std::_List_val<std::pair<unsigned int const ,cpp_object *>,std::allocator<std::pair<unsigned int const ,cpp_object *> > > >,std::allocator<std::_List_iterator<std::_List_val<std::pair<unsigned int const ,cpp_object *>,std::allocator<std::pair<unsigned int const ,cpp_object *> > > > > >
PUBLIC	??$?0U?$pair@$$CBIPAUcpp_object@@@std@@@?$allocator@V?$_List_iterator@V?$_List_val@U?$pair@$$CBIPAUcpp_object@@@std@@V?$allocator@U?$pair@$$CBIPAUcpp_object@@@std@@@2@@std@@@std@@@std@@QAE@ABV?$allocator@U?$pair@$$CBIPAUcpp_object@@@std@@@1@@Z ; std::allocator<std::_List_iterator<std::_List_val<std::pair<unsigned int const ,cpp_object *>,std::allocator<std::pair<unsigned int const ,cpp_object *> > > > >::allocator<std::_List_iterator<std::_List_val<std::pair<unsigned int const ,cpp_object *>,std::allocator<std::pair<unsigned int const ,cpp_object *> > > > ><std::pair<unsigned int const ,cpp_object *> >
PUBLIC	??0?$_Hash@V?$_Umap_traits@IPAUcpp_object@@V?$_Hash_compare@IVcpp_tommy_inthash_u32@@U?$equal_to@I@std@@@std@@V?$allocator@U?$pair@$$CBIPAUcpp_object@@@std@@@3@$0A@@tr1@std@@@std@@QAE@ABV?$_Hash_compare@IVcpp_tommy_inthash_u32@@U?$equal_to@I@std@@@1@ABV?$allocator@U?$pair@$$CBIPAUcpp_object@@@std@@@1@@Z ; std::_Hash<std::tr1::_Umap_traits<unsigned int,cpp_object *,std::_Hash_compare<unsigned int,cpp_tommy_inthash_u32,std::equal_to<unsigned int> >,std::allocator<std::pair<unsigned int const ,cpp_object *> >,0> >::_Hash<std::tr1::_Umap_traits<unsigned int,cpp_object *,std::_Hash_compare<unsigned int,cpp_tommy_inthash_u32,std::equal_to<unsigned int> >,std::allocator<std::pair<unsigned int const ,cpp_object *> >,0> >
PUBLIC	??0?$unordered_map@IPAUcpp_object@@Vcpp_tommy_inthash_u32@@U?$equal_to@I@std@@V?$allocator@U?$pair@$$CBIPAUcpp_object@@@std@@@4@@tr1@std@@QAE@XZ ; std::tr1::unordered_map<unsigned int,cpp_object *,cpp_tommy_inthash_u32,std::equal_to<unsigned int>,std::allocator<std::pair<unsigned int const ,cpp_object *> > >::unordered_map<unsigned int,cpp_object *,cpp_tommy_inthash_u32,std::equal_to<unsigned int>,std::allocator<std::pair<unsigned int const ,cpp_object *> > >
PUBLIC	_tommy_trie_count
PUBLIC	_tommy_trie_inplace_count
PUBLIC	_tommy_hashtable_count
PUBLIC	_tommy_hashdyn_count
PUBLIC	_tommy_hashlin_count
PUBLIC	??1?$dense_hash_map@IPAUgoogle_object@@Vcpp_tommy_inthash_u32@@U?$equal_to@I@std@@V?$libc_allocator_with_realloc@U?$pair@$$CBIPAUgoogle_object@@@std@@@google@@@google@@QAE@XZ ; google::dense_hash_map<unsigned int,google_object *,cpp_tommy_inthash_u32,std::equal_to<unsigned int>,google::libc_allocator_with_realloc<std::pair<unsigned int const ,google_object *> > >::~dense_hash_map<unsigned int,google_object *,cpp_tommy_inthash_u32,std::equal_to<unsigned int>,google::libc_allocator_with_realloc<std::pair<unsigned int const ,google_object *> > >
PUBLIC	??_G?$dense_hash_map@IPAUgoogle_object@@Vcpp_tommy_inthash_u32@@U?$equal_to@I@std@@V?$libc_allocator_with_realloc@U?$pair@$$CBIPAUgoogle_object@@@std@@@google@@@google@@QAEPAXI@Z ; google::dense_hash_map<unsigned int,google_object *,cpp_tommy_inthash_u32,std::equal_to<unsigned int>,google::libc_allocator_with_realloc<std::pair<unsigned int const ,google_object *> > >::`scalar deleting destructor'
PUBLIC	?internal_clear@?$btree@U?$btree_map_params@IPAUgoogle_object@@U?$less@I@std@@V?$allocator@U?$pair@$$CBIPAUgoogle_object@@@std@@@3@$0BAA@@0@@btree@@AAEXPAV?$btree_node@U?$btree_map_params@IPAUgoogle_object@@U?$less@I@std@@V?$allocator@U?$pair@$$CBIPAUgoogle_object@@@std@@@3@$0BAA@@btree@@@2@@Z ; btree::btree<btree::btree_map_params<unsigned int,google_object *,std::less<unsigned int>,std::allocator<std::pair<unsigned int const ,google_object *> >,256> >::internal_clear
PUBLIC	?clear@?$btree@U?$btree_map_params@IPAUgoogle_object@@U?$less@I@std@@V?$allocator@U?$pair@$$CBIPAUgoogle_object@@@std@@@3@$0BAA@@0@@btree@@QAEXXZ ; btree::btree<btree::btree_map_params<unsigned int,google_object *,std::less<unsigned int>,std::allocator<std::pair<unsigned int const ,google_object *> >,256> >::clear
PUBLIC	??1?$btree@U?$btree_map_params@IPAUgoogle_object@@U?$less@I@std@@V?$allocator@U?$pair@$$CBIPAUgoogle_object@@@std@@@3@$0BAA@@0@@btree@@QAE@XZ ; btree::btree<btree::btree_map_params<unsigned int,google_object *,std::less<unsigned int>,std::allocator<std::pair<unsigned int const ,google_object *> >,256> >::~btree<btree::btree_map_params<unsigned int,google_object *,std::less<unsigned int>,std::allocator<std::pair<unsigned int const ,google_object *> >,256> >
PUBLIC	??1?$btree_container@V?$btree@U?$btree_map_params@IPAUgoogle_object@@U?$less@I@std@@V?$allocator@U?$pair@$$CBIPAUgoogle_object@@@std@@@3@$0BAA@@0@@btree@@@btree@@QAE@XZ ; btree::btree_container<btree::btree<btree::btree_map_params<unsigned int,google_object *,std::less<unsigned int>,std::allocator<std::pair<unsigned int const ,google_object *> >,256> > >::~btree_container<btree::btree<btree::btree_map_params<unsigned int,google_object *,std::less<unsigned int>,std::allocator<std::pair<unsigned int const ,google_object *> >,256> > >
PUBLIC	??1?$btree_unique_container@V?$btree@U?$btree_map_params@IPAUgoogle_object@@U?$less@I@std@@V?$allocator@U?$pair@$$CBIPAUgoogle_object@@@std@@@3@$0BAA@@0@@btree@@@btree@@QAE@XZ ; btree::btree_unique_container<btree::btree<btree::btree_map_params<unsigned int,google_object *,std::less<unsigned int>,std::allocator<std::pair<unsigned int const ,google_object *> >,256> > >::~btree_unique_container<btree::btree<btree::btree_map_params<unsigned int,google_object *,std::less<unsigned int>,std::allocator<std::pair<unsigned int const ,google_object *> >,256> > >
PUBLIC	??1?$btree_map_container@V?$btree@U?$btree_map_params@IPAUgoogle_object@@U?$less@I@std@@V?$allocator@U?$pair@$$CBIPAUgoogle_object@@@std@@@3@$0BAA@@0@@btree@@@btree@@QAE@XZ ; btree::btree_map_container<btree::btree<btree::btree_map_params<unsigned int,google_object *,std::less<unsigned int>,std::allocator<std::pair<unsigned int const ,google_object *> >,256> > >::~btree_map_container<btree::btree<btree::btree_map_params<unsigned int,google_object *,std::less<unsigned int>,std::allocator<std::pair<unsigned int const ,google_object *> >,256> > >
PUBLIC	??1?$btree_map@IPAUgoogle_object@@U?$less@I@std@@V?$allocator@U?$pair@$$CBIPAUgoogle_object@@@std@@@3@$0BAA@@btree@@QAE@XZ ; btree::btree_map<unsigned int,google_object *,std::less<unsigned int>,std::allocator<std::pair<unsigned int const ,google_object *> >,256>::~btree_map<unsigned int,google_object *,std::less<unsigned int>,std::allocator<std::pair<unsigned int const ,google_object *> >,256>
PUBLIC	??_G?$btree_map@IPAUgoogle_object@@U?$less@I@std@@V?$allocator@U?$pair@$$CBIPAUgoogle_object@@@std@@@3@$0BAA@@btree@@QAEPAXI@Z ; btree::btree_map<unsigned int,google_object *,std::less<unsigned int>,std::allocator<std::pair<unsigned int const ,google_object *> >,256>::`scalar deleting destructor'
PUBLIC	??1?$_Tree_val@V?$_Tmap_traits@IPAUcpp_object@@U?$less@I@std@@V?$allocator@U?$pair@$$CBIPAUcpp_object@@@std@@@3@$0A@@std@@@std@@QAE@XZ ; std::_Tree_val<std::_Tmap_traits<unsigned int,cpp_object *,std::less<unsigned int>,std::allocator<std::pair<unsigned int const ,cpp_object *> >,0> >::~_Tree_val<std::_Tmap_traits<unsigned int,cpp_object *,std::less<unsigned int>,std::allocator<std::pair<unsigned int const ,cpp_object *> >,0> >
PUBLIC	?_Erase@?$_Tree@V?$_Tmap_traits@IPAUcpp_object@@U?$less@I@std@@V?$allocator@U?$pair@$$CBIPAUcpp_object@@@std@@@3@$0A@@std@@@std@@IAEXPAU_Node@?$_Tree_nod@V?$_Tmap_traits@IPAUcpp_object@@U?$less@I@std@@V?$allocator@U?$pair@$$CBIPAUcpp_object@@@std@@@3@$0A@@std@@@2@@Z ; std::_Tree<std::_Tmap_traits<unsigned int,cpp_object *,std::less<unsigned int>,std::allocator<std::pair<unsigned int const ,cpp_object *> >,0> >::_Erase
PUBLIC	?clear@?$_Tree@V?$_Tmap_traits@IPAUcpp_object@@U?$less@I@std@@V?$allocator@U?$pair@$$CBIPAUcpp_object@@@std@@@3@$0A@@std@@@std@@QAEXXZ ; std::_Tree<std::_Tmap_traits<unsigned int,cpp_object *,std::less<unsigned int>,std::allocator<std::pair<unsigned int const ,cpp_object *> >,0> >::clear
PUBLIC	??E?$_Tree_const_iterator@V?$_Tree_val@V?$_Tmap_traits@IPAUcpp_object@@U?$less@I@std@@V?$allocator@U?$pair@$$CBIPAUcpp_object@@@std@@@3@$0A@@std@@@std@@@std@@QAE?AV01@H@Z ; std::_Tree_const_iterator<std::_Tree_val<std::_Tmap_traits<unsigned int,cpp_object *,std::less<unsigned int>,std::allocator<std::pair<unsigned int const ,cpp_object *> >,0> > >::operator++
PUBLIC	?erase@?$_Tree@V?$_Tmap_traits@IPAUcpp_object@@U?$less@I@std@@V?$allocator@U?$pair@$$CBIPAUcpp_object@@@std@@@3@$0A@@std@@@std@@QAE?AV?$_Tree_iterator@V?$_Tree_val@V?$_Tmap_traits@IPAUcpp_object@@U?$less@I@std@@V?$allocator@U?$pair@$$CBIPAUcpp_object@@@std@@@3@$0A@@std@@@std@@@2@V?$_Tree_const_iterator@V?$_Tree_val@V?$_Tmap_traits@IPAUcpp_object@@U?$less@I@std@@V?$allocator@U?$pair@$$CBIPAUcpp_object@@@std@@@3@$0A@@std@@@std@@@2@0@Z ; std::_Tree<std::_Tmap_traits<unsigned int,cpp_object *,std::less<unsigned int>,std::allocator<std::pair<unsigned int const ,cpp_object *> >,0> >::erase
PUBLIC	?_Tidy@?$_Tree@V?$_Tmap_traits@IPAUcpp_object@@U?$less@I@std@@V?$allocator@U?$pair@$$CBIPAUcpp_object@@@std@@@3@$0A@@std@@@std@@IAEXXZ ; std::_Tree<std::_Tmap_traits<unsigned int,cpp_object *,std::less<unsigned int>,std::allocator<std::pair<unsigned int const ,cpp_object *> >,0> >::_Tidy
PUBLIC	??1?$_Tree@V?$_Tmap_traits@IPAUcpp_object@@U?$less@I@std@@V?$allocator@U?$pair@$$CBIPAUcpp_object@@@std@@@3@$0A@@std@@@std@@QAE@XZ ; std::_Tree<std::_Tmap_traits<unsigned int,cpp_object *,std::less<unsigned int>,std::allocator<std::pair<unsigned int const ,cpp_object *> >,0> >::~_Tree<std::_Tmap_traits<unsigned int,cpp_object *,std::less<unsigned int>,std::allocator<std::pair<unsigned int const ,cpp_object *> >,0> >
PUBLIC	??1?$map@IPAUcpp_object@@U?$less@I@std@@V?$allocator@U?$pair@$$CBIPAUcpp_object@@@std@@@3@@std@@QAE@XZ ; std::map<unsigned int,cpp_object *,std::less<unsigned int>,std::allocator<std::pair<unsigned int const ,cpp_object *> > >::~map<unsigned int,cpp_object *,std::less<unsigned int>,std::allocator<std::pair<unsigned int const ,cpp_object *> > >
PUBLIC	??_G?$map@IPAUcpp_object@@U?$less@I@std@@V?$allocator@U?$pair@$$CBIPAUcpp_object@@@std@@@3@@std@@QAEPAXI@Z ; std::map<unsigned int,cpp_object *,std::less<unsigned int>,std::allocator<std::pair<unsigned int const ,cpp_object *> > >::`scalar deleting destructor'
PUBLIC	??1?$_List_val@U?$pair@$$CBIPAUcpp_object@@@std@@V?$allocator@U?$pair@$$CBIPAUcpp_object@@@std@@@2@@std@@QAE@XZ ; std::_List_val<std::pair<unsigned int const ,cpp_object *>,std::allocator<std::pair<unsigned int const ,cpp_object *> > >::~_List_val<std::pair<unsigned int const ,cpp_object *>,std::allocator<std::pair<unsigned int const ,cpp_object *> > >
PUBLIC	?clear@?$list@U?$pair@$$CBIPAUcpp_object@@@std@@V?$allocator@U?$pair@$$CBIPAUcpp_object@@@std@@@2@@std@@QAEXXZ ; std::list<std::pair<unsigned int const ,cpp_object *>,std::allocator<std::pair<unsigned int const ,cpp_object *> > >::clear
PUBLIC	?_Tidy@?$list@U?$pair@$$CBIPAUcpp_object@@@std@@V?$allocator@U?$pair@$$CBIPAUcpp_object@@@std@@@2@@std@@QAEXXZ ; std::list<std::pair<unsigned int const ,cpp_object *>,std::allocator<std::pair<unsigned int const ,cpp_object *> > >::_Tidy
PUBLIC	??1?$list@U?$pair@$$CBIPAUcpp_object@@@std@@V?$allocator@U?$pair@$$CBIPAUcpp_object@@@std@@@2@@std@@QAE@XZ ; std::list<std::pair<unsigned int const ,cpp_object *>,std::allocator<std::pair<unsigned int const ,cpp_object *> > >::~list<std::pair<unsigned int const ,cpp_object *>,std::allocator<std::pair<unsigned int const ,cpp_object *> > >
PUBLIC	??1?$_Vector_val@V?$_List_iterator@V?$_List_val@U?$pair@$$CBIPAUcpp_object@@@std@@V?$allocator@U?$pair@$$CBIPAUcpp_object@@@std@@@2@@std@@@std@@V?$allocator@V?$_List_iterator@V?$_List_val@U?$pair@$$CBIPAUcpp_object@@@std@@V?$allocator@U?$pair@$$CBIPAUcpp_object@@@std@@@2@@std@@@std@@@2@@std@@QAE@XZ ; std::_Vector_val<std::_List_iterator<std::_List_val<std::pair<unsigned int const ,cpp_object *>,std::allocator<std::pair<unsigned int const ,cpp_object *> > > >,std::allocator<std::_List_iterator<std::_List_val<std::pair<unsigned int const ,cpp_object *>,std::allocator<std::pair<unsigned int const ,cpp_object *> > > > > >::~_Vector_val<std::_List_iterator<std::_List_val<std::pair<unsigned int const ,cpp_object *>,std::allocator<std::pair<unsigned int const ,cpp_object *> > > >,std::allocator<std::_List_iterator<std::_List_val<std::pair<unsigned int const ,cpp_object *>,std::allocator<std::pair<unsigned int const ,cpp_object *> > > > > >
PUBLIC	?_Tidy@?$vector@V?$_List_iterator@V?$_List_val@U?$pair@$$CBIPAUcpp_object@@@std@@V?$allocator@U?$pair@$$CBIPAUcpp_object@@@std@@@2@@std@@@std@@V?$allocator@V?$_List_iterator@V?$_List_val@U?$pair@$$CBIPAUcpp_object@@@std@@V?$allocator@U?$pair@$$CBIPAUcpp_object@@@std@@@2@@std@@@std@@@2@@std@@IAEXXZ ; std::vector<std::_List_iterator<std::_List_val<std::pair<unsigned int const ,cpp_object *>,std::allocator<std::pair<unsigned int const ,cpp_object *> > > >,std::allocator<std::_List_iterator<std::_List_val<std::pair<unsigned int const ,cpp_object *>,std::allocator<std::pair<unsigned int const ,cpp_object *> > > > > >::_Tidy
PUBLIC	??1?$vector@V?$_List_iterator@V?$_List_val@U?$pair@$$CBIPAUcpp_object@@@std@@V?$allocator@U?$pair@$$CBIPAUcpp_object@@@std@@@2@@std@@@std@@V?$allocator@V?$_List_iterator@V?$_List_val@U?$pair@$$CBIPAUcpp_object@@@std@@V?$allocator@U?$pair@$$CBIPAUcpp_object@@@std@@@2@@std@@@std@@@2@@std@@QAE@XZ ; std::vector<std::_List_iterator<std::_List_val<std::pair<unsigned int const ,cpp_object *>,std::allocator<std::pair<unsigned int const ,cpp_object *> > > >,std::allocator<std::_List_iterator<std::_List_val<std::pair<unsigned int const ,cpp_object *>,std::allocator<std::pair<unsigned int const ,cpp_object *> > > > > >::~vector<std::_List_iterator<std::_List_val<std::pair<unsigned int const ,cpp_object *>,std::allocator<std::pair<unsigned int const ,cpp_object *> > > >,std::allocator<std::_List_iterator<std::_List_val<std::pair<unsigned int const ,cpp_object *>,std::allocator<std::pair<unsigned int const ,cpp_object *> > > > > >
PUBLIC	??1?$_Hash@V?$_Umap_traits@IPAUcpp_object@@V?$_Hash_compare@IVcpp_tommy_inthash_u32@@U?$equal_to@I@std@@@std@@V?$allocator@U?$pair@$$CBIPAUcpp_object@@@std@@@3@$0A@@tr1@std@@@std@@QAE@XZ ; std::_Hash<std::tr1::_Umap_traits<unsigned int,cpp_object *,std::_Hash_compare<unsigned int,cpp_tommy_inthash_u32,std::equal_to<unsigned int> >,std::allocator<std::pair<unsigned int const ,cpp_object *> >,0> >::~_Hash<std::tr1::_Umap_traits<unsigned int,cpp_object *,std::_Hash_compare<unsigned int,cpp_tommy_inthash_u32,std::equal_to<unsigned int> >,std::allocator<std::pair<unsigned int const ,cpp_object *> >,0> >
PUBLIC	??1?$unordered_map@IPAUcpp_object@@Vcpp_tommy_inthash_u32@@U?$equal_to@I@std@@V?$allocator@U?$pair@$$CBIPAUcpp_object@@@std@@@4@@tr1@std@@QAE@XZ ; std::tr1::unordered_map<unsigned int,cpp_object *,cpp_tommy_inthash_u32,std::equal_to<unsigned int>,std::allocator<std::pair<unsigned int const ,cpp_object *> > >::~unordered_map<unsigned int,cpp_object *,cpp_tommy_inthash_u32,std::equal_to<unsigned int>,std::allocator<std::pair<unsigned int const ,cpp_object *> > >
PUBLIC	??_G?$unordered_map@IPAUcpp_object@@Vcpp_tommy_inthash_u32@@U?$equal_to@I@std@@V?$allocator@U?$pair@$$CBIPAUcpp_object@@@std@@@4@@tr1@std@@QAEPAXI@Z ; std::tr1::unordered_map<unsigned int,cpp_object *,cpp_tommy_inthash_u32,std::equal_to<unsigned int>,std::allocator<std::pair<unsigned int const ,cpp_object *> > >::`scalar deleting destructor'
PUBLIC	??C?$dense_hashtable_const_iterator@U?$pair@$$CBIPAUgoogle_object@@@std@@IVcpp_tommy_inthash_u32@@USelectKey@?$dense_hash_map@IPAUgoogle_object@@Vcpp_tommy_inthash_u32@@U?$equal_to@I@std@@V?$libc_allocator_with_realloc@U?$pair@$$CBIPAUgoogle_object@@@std@@@google@@@google@@USetKey@56@U?$equal_to@I@2@V?$libc_allocator_with_realloc@U?$pair@$$CBIPAUgoogle_object@@@std@@@6@@google@@QBEPBU?$pair@$$CBIPAUgoogle_object@@@std@@XZ ; google::dense_hashtable_const_iterator<std::pair<unsigned int const ,google_object *>,unsigned int,cpp_tommy_inthash_u32,google::dense_hash_map<unsigned int,google_object *,cpp_tommy_inthash_u32,std::equal_to<unsigned int>,google::libc_allocator_with_realloc<std::pair<unsigned int const ,google_object *> > >::SelectKey,google::dense_hash_map<unsigned int,google_object *,cpp_tommy_inthash_u32,std::equal_to<unsigned int>,google::libc_allocator_with_realloc<std::pair<unsigned int const ,google_object *> > >::SetKey,std::equal_to<unsigned int>,google::libc_allocator_with_realloc<std::pair<unsigned int const ,google_object *> > >::operator->
PUBLIC	??8?$dense_hashtable_const_iterator@U?$pair@$$CBIPAUgoogle_object@@@std@@IVcpp_tommy_inthash_u32@@USelectKey@?$dense_hash_map@IPAUgoogle_object@@Vcpp_tommy_inthash_u32@@U?$equal_to@I@std@@V?$libc_allocator_with_realloc@U?$pair@$$CBIPAUgoogle_object@@@std@@@google@@@google@@USetKey@56@U?$equal_to@I@2@V?$libc_allocator_with_realloc@U?$pair@$$CBIPAUgoogle_object@@@std@@@6@@google@@QBE_NABU01@@Z ; google::dense_hashtable_const_iterator<std::pair<unsigned int const ,google_object *>,unsigned int,cpp_tommy_inthash_u32,google::dense_hash_map<unsigned int,google_object *,cpp_tommy_inthash_u32,std::equal_to<unsigned int>,google::libc_allocator_with_realloc<std::pair<unsigned int const ,google_object *> > >::SelectKey,google::dense_hash_map<unsigned int,google_object *,cpp_tommy_inthash_u32,std::equal_to<unsigned int>,google::libc_allocator_with_realloc<std::pair<unsigned int const ,google_object *> > >::SetKey,std::equal_to<unsigned int>,google::libc_allocator_with_realloc<std::pair<unsigned int const ,google_object *> > >::operator==
PUBLIC	??8?$btree_iterator@$$CBV?$btree_node@U?$btree_map_params@IPAUgoogle_object@@U?$less@I@std@@V?$allocator@U?$pair@$$CBIPAUgoogle_object@@@std@@@3@$0BAA@@btree@@@btree@@ABU?$pair@$$CBIPAUgoogle_object@@@std@@PBU34@@btree@@QBE_NABU01@@Z ; btree::btree_iterator<btree::btree_node<btree::btree_map_params<unsigned int,google_object *,std::less<unsigned int>,std::allocator<std::pair<unsigned int const ,google_object *> >,256> > const ,std::pair<unsigned int const ,google_object *> const &,std::pair<unsigned int const ,google_object *> const *>::operator==
PUBLIC	?value@?$btree_node@U?$btree_map_params@IPAUgoogle_object@@U?$less@I@std@@V?$allocator@U?$pair@$$CBIPAUgoogle_object@@@std@@@3@$0BAA@@btree@@@btree@@QBEABU?$pair@$$CBIPAUgoogle_object@@@std@@H@Z ; btree::btree_node<btree::btree_map_params<unsigned int,google_object *,std::less<unsigned int>,std::allocator<std::pair<unsigned int const ,google_object *> >,256> >::value
PUBLIC	??C?$btree_iterator@$$CBV?$btree_node@U?$btree_map_params@IPAUgoogle_object@@U?$less@I@std@@V?$allocator@U?$pair@$$CBIPAUgoogle_object@@@std@@@3@$0BAA@@btree@@@btree@@ABU?$pair@$$CBIPAUgoogle_object@@@std@@PBU34@@btree@@QBEPBU?$pair@$$CBIPAUgoogle_object@@@std@@XZ ; btree::btree_iterator<btree::btree_node<btree::btree_map_params<unsigned int,google_object *,std::less<unsigned int>,std::allocator<std::pair<unsigned int const ,google_object *> >,256> > const ,std::pair<unsigned int const ,google_object *> const &,std::pair<unsigned int const ,google_object *> const *>::operator->
PUBLIC	??D?$_Tree_unchecked_const_iterator@V?$_Tree_val@V?$_Tmap_traits@IPAUcpp_object@@U?$less@I@std@@V?$allocator@U?$pair@$$CBIPAUcpp_object@@@std@@@3@$0A@@std@@@std@@U_Iterator_base0@2@@std@@QBEABU?$pair@$$CBIPAUcpp_object@@@1@XZ ; std::_Tree_unchecked_const_iterator<std::_Tree_val<std::_Tmap_traits<unsigned int,cpp_object *,std::less<unsigned int>,std::allocator<std::pair<unsigned int const ,cpp_object *> >,0> >,std::_Iterator_base0>::operator*
PUBLIC	??C?$_Tree_unchecked_const_iterator@V?$_Tree_val@V?$_Tmap_traits@IPAUcpp_object@@U?$less@I@std@@V?$allocator@U?$pair@$$CBIPAUcpp_object@@@std@@@3@$0A@@std@@@std@@U_Iterator_base0@2@@std@@QBEPBU?$pair@$$CBIPAUcpp_object@@@1@XZ ; std::_Tree_unchecked_const_iterator<std::_Tree_val<std::_Tmap_traits<unsigned int,cpp_object *,std::less<unsigned int>,std::allocator<std::pair<unsigned int const ,cpp_object *> >,0> >,std::_Iterator_base0>::operator->
PUBLIC	??D?$_List_unchecked_const_iterator@V?$_List_val@U?$pair@$$CBIPAUcpp_object@@@std@@V?$allocator@U?$pair@$$CBIPAUcpp_object@@@std@@@2@@std@@U_Iterator_base0@2@@std@@QBEABU?$pair@$$CBIPAUcpp_object@@@1@XZ ; std::_List_unchecked_const_iterator<std::_List_val<std::pair<unsigned int const ,cpp_object *>,std::allocator<std::pair<unsigned int const ,cpp_object *> > >,std::_Iterator_base0>::operator*
PUBLIC	??C?$_List_unchecked_const_iterator@V?$_List_val@U?$pair@$$CBIPAUcpp_object@@@std@@V?$allocator@U?$pair@$$CBIPAUcpp_object@@@std@@@2@@std@@U_Iterator_base0@2@@std@@QBEPBU?$pair@$$CBIPAUcpp_object@@@1@XZ ; std::_List_unchecked_const_iterator<std::_List_val<std::pair<unsigned int const ,cpp_object *>,std::allocator<std::pair<unsigned int const ,cpp_object *> > >,std::_Iterator_base0>::operator->
PUBLIC	_tommy_trie_search
PUBLIC	_tommy_trie_inplace_search
PUBLIC	_tommy_hashtable_bucket
PUBLIC	_tommy_hashtable_search
PUBLIC	_tommy_hashdyn_bucket
PUBLIC	_tommy_hashdyn_search
PUBLIC	_tommy_hashlin_search
PUBLIC	??0?$dense_hashtable_const_iterator@U?$pair@$$CBIPAUgoogle_object@@@std@@IVcpp_tommy_inthash_u32@@USelectKey@?$dense_hash_map@IPAUgoogle_object@@Vcpp_tommy_inthash_u32@@U?$equal_to@I@std@@V?$libc_allocator_with_realloc@U?$pair@$$CBIPAUgoogle_object@@@std@@@google@@@google@@USetKey@56@U?$equal_to@I@2@V?$libc_allocator_with_realloc@U?$pair@$$CBIPAUgoogle_object@@@std@@@6@@google@@QAE@ABU?$dense_hashtable_iterator@U?$pair@$$CBIPAUgoogle_object@@@std@@IVcpp_tommy_inthash_u32@@USelectKey@?$dense_hash_map@IPAUgoogle_object@@Vcpp_tommy_inthash_u32@@U?$equal_to@I@std@@V?$libc_allocator_with_realloc@U?$pair@$$CBIPAUgoogle_object@@@std@@@google@@@google@@USetKey@56@U?$equal_to@I@2@V?$libc_allocator_with_realloc@U?$pair@$$CBIPAUgoogle_object@@@std@@@6@@1@@Z ; google::dense_hashtable_const_iterator<std::pair<unsigned int const ,google_object *>,unsigned int,cpp_tommy_inthash_u32,google::dense_hash_map<unsigned int,google_object *,cpp_tommy_inthash_u32,std::equal_to<unsigned int>,google::libc_allocator_with_realloc<std::pair<unsigned int const ,google_object *> > >::SelectKey,google::dense_hash_map<unsigned int,google_object *,cpp_tommy_inthash_u32,std::equal_to<unsigned int>,google::libc_allocator_with_realloc<std::pair<unsigned int const ,google_object *> > >::SetKey,std::equal_to<unsigned int>,google::libc_allocator_with_realloc<std::pair<unsigned int const ,google_object *> > >::dense_hashtable_const_iterator<std::pair<unsigned int const ,google_object *>,unsigned int,cpp_tommy_inthash_u32,google::dense_hash_map<unsigned int,google_object *,cpp_tommy_inthash_u32,std::equal_to<unsigned int>,google::libc_allocator_with_realloc<std::pair<unsigned int const ,google_object *> > >::SelectKey,google::dense_hash_map<unsigned int,google_object *,cpp_tommy_inthash_u32,std::equal_to<unsigned int>,google::libc_allocator_with_realloc<std::pair<unsigned int const ,google_object *> > >::SetKey,std::equal_to<unsigned int>,google::libc_allocator_with_realloc<std::pair<unsigned int const ,google_object *> > >
PUBLIC	??9?$btree_iterator@$$CBV?$btree_node@U?$btree_map_params@IPAUgoogle_object@@U?$less@I@std@@V?$allocator@U?$pair@$$CBIPAUgoogle_object@@@std@@@3@$0BAA@@btree@@@btree@@ABU?$pair@$$CBIPAUgoogle_object@@@std@@PBU34@@btree@@QBE_NABU01@@Z ; btree::btree_iterator<btree::btree_node<btree::btree_map_params<unsigned int,google_object *,std::less<unsigned int>,std::allocator<std::pair<unsigned int const ,google_object *> >,256> > const ,std::pair<unsigned int const ,google_object *> const &,std::pair<unsigned int const ,google_object *> const *>::operator!=
PUBLIC	??9?$_Tree_const_iterator@V?$_Tree_val@V?$_Tmap_traits@IPAUcpp_object@@U?$less@I@std@@V?$allocator@U?$pair@$$CBIPAUcpp_object@@@std@@@3@$0A@@std@@@std@@@std@@QBE_NABV01@@Z ; std::_Tree_const_iterator<std::_Tree_val<std::_Tmap_traits<unsigned int,cpp_object *,std::less<unsigned int>,std::allocator<std::pair<unsigned int const ,cpp_object *> >,0> > >::operator!=
PUBLIC	?clear_deleted@?$dense_hashtable@U?$pair@$$CBIPAUgoogle_object@@@std@@IVcpp_tommy_inthash_u32@@USelectKey@?$dense_hash_map@IPAUgoogle_object@@Vcpp_tommy_inthash_u32@@U?$equal_to@I@std@@V?$libc_allocator_with_realloc@U?$pair@$$CBIPAUgoogle_object@@@std@@@google@@@google@@USetKey@56@U?$equal_to@I@2@V?$libc_allocator_with_realloc@U?$pair@$$CBIPAUgoogle_object@@@std@@@6@@google@@AAE_NAAU?$dense_hashtable_const_iterator@U?$pair@$$CBIPAUgoogle_object@@@std@@IVcpp_tommy_inthash_u32@@USelectKey@?$dense_hash_map@IPAUgoogle_object@@Vcpp_tommy_inthash_u32@@U?$equal_to@I@std@@V?$libc_allocator_with_realloc@U?$pair@$$CBIPAUgoogle_object@@@std@@@google@@@google@@USetKey@56@U?$equal_to@I@2@V?$libc_allocator_with_realloc@U?$pair@$$CBIPAUgoogle_object@@@std@@@6@@2@@Z ; google::dense_hashtable<std::pair<unsigned int const ,google_object *>,unsigned int,cpp_tommy_inthash_u32,google::dense_hash_map<unsigned int,google_object *,cpp_tommy_inthash_u32,std::equal_to<unsigned int>,google::libc_allocator_with_realloc<std::pair<unsigned int const ,google_object *> > >::SelectKey,google::dense_hash_map<unsigned int,google_object *,cpp_tommy_inthash_u32,std::equal_to<unsigned int>,google::libc_allocator_with_realloc<std::pair<unsigned int const ,google_object *> > >::SetKey,std::equal_to<unsigned int>,google::libc_allocator_with_realloc<std::pair<unsigned int const ,google_object *> > >::clear_deleted
PUBLIC	?max_size@?$libc_allocator_with_realloc@U?$pair@$$CBIPAUgoogle_object@@@std@@@google@@QBEIXZ ; google::libc_allocator_with_realloc<std::pair<unsigned int const ,google_object *> >::max_size
PUBLIC	?max_size@?$dense_hashtable@U?$pair@$$CBIPAUgoogle_object@@@std@@IVcpp_tommy_inthash_u32@@USelectKey@?$dense_hash_map@IPAUgoogle_object@@Vcpp_tommy_inthash_u32@@U?$equal_to@I@std@@V?$libc_allocator_with_realloc@U?$pair@$$CBIPAUgoogle_object@@@std@@@google@@@google@@USetKey@56@U?$equal_to@I@2@V?$libc_allocator_with_realloc@U?$pair@$$CBIPAUgoogle_object@@@std@@@6@@google@@QBEIXZ ; google::dense_hashtable<std::pair<unsigned int const ,google_object *>,unsigned int,cpp_tommy_inthash_u32,google::dense_hash_map<unsigned int,google_object *,cpp_tommy_inthash_u32,std::equal_to<unsigned int>,google::libc_allocator_with_realloc<std::pair<unsigned int const ,google_object *> > >::SelectKey,google::dense_hash_map<unsigned int,google_object *,cpp_tommy_inthash_u32,std::equal_to<unsigned int>,google::libc_allocator_with_realloc<std::pair<unsigned int const ,google_object *> > >::SetKey,std::equal_to<unsigned int>,google::libc_allocator_with_realloc<std::pair<unsigned int const ,google_object *> > >::max_size
PUBLIC	?insert_at@?$dense_hashtable@U?$pair@$$CBIPAUgoogle_object@@@std@@IVcpp_tommy_inthash_u32@@USelectKey@?$dense_hash_map@IPAUgoogle_object@@Vcpp_tommy_inthash_u32@@U?$equal_to@I@std@@V?$libc_allocator_with_realloc@U?$pair@$$CBIPAUgoogle_object@@@std@@@google@@@google@@USetKey@56@U?$equal_to@I@2@V?$libc_allocator_with_realloc@U?$pair@$$CBIPAUgoogle_object@@@std@@@6@@google@@AAE?AU?$dense_hashtable_iterator@U?$pair@$$CBIPAUgoogle_object@@@std@@IVcpp_tommy_inthash_u32@@USelectKey@?$dense_hash_map@IPAUgoogle_object@@Vcpp_tommy_inthash_u32@@U?$equal_to@I@std@@V?$libc_allocator_with_realloc@U?$pair@$$CBIPAUgoogle_object@@@std@@@google@@@google@@USetKey@56@U?$equal_to@I@2@V?$libc_allocator_with_realloc@U?$pair@$$CBIPAUgoogle_object@@@std@@@6@@2@ABU?$pair@$$CBIPAUgoogle_object@@@std@@I@Z ; google::dense_hashtable<std::pair<unsigned int const ,google_object *>,unsigned int,cpp_tommy_inthash_u32,google::dense_hash_map<unsigned int,google_object *,cpp_tommy_inthash_u32,std::equal_to<unsigned int>,google::libc_allocator_with_realloc<std::pair<unsigned int const ,google_object *> > >::SelectKey,google::dense_hash_map<unsigned int,google_object *,cpp_tommy_inthash_u32,std::equal_to<unsigned int>,google::libc_allocator_with_realloc<std::pair<unsigned int const ,google_object *> > >::SetKey,std::equal_to<unsigned int>,google::libc_allocator_with_realloc<std::pair<unsigned int const ,google_object *> > >::insert_at
PUBLIC	??0?$_Pair_base@U?$dense_hashtable_iterator@U?$pair@$$CBIPAUgoogle_object@@@std@@IVcpp_tommy_inthash_u32@@USelectKey@?$dense_hash_map@IPAUgoogle_object@@Vcpp_tommy_inthash_u32@@U?$equal_to@I@std@@V?$libc_allocator_with_realloc@U?$pair@$$CBIPAUgoogle_object@@@std@@@google@@@google@@USetKey@56@U?$equal_to@I@2@V?$libc_allocator_with_realloc@U?$pair@$$CBIPAUgoogle_object@@@std@@@6@@google@@_N@std@@QAE@$$QAU?$dense_hashtable_iterator@U?$pair@$$CBIPAUgoogle_object@@@std@@IVcpp_tommy_inthash_u32@@USelectKey@?$dense_hash_map@IPAUgoogle_object@@Vcpp_tommy_inthash_u32@@U?$equal_to@I@std@@V?$libc_allocator_with_realloc@U?$pair@$$CBIPAUgoogle_object@@@std@@@google@@@google@@USetKey@56@U?$equal_to@I@2@V?$libc_allocator_with_realloc@U?$pair@$$CBIPAUgoogle_object@@@std@@@6@@google@@$$QA_N@Z ; std::_Pair_base<google::dense_hashtable_iterator<std::pair<unsigned int const ,google_object *>,unsigned int,cpp_tommy_inthash_u32,google::dense_hash_map<unsigned int,google_object *,cpp_tommy_inthash_u32,std::equal_to<unsigned int>,google::libc_allocator_with_realloc<std::pair<unsigned int const ,google_object *> > >::SelectKey,google::dense_hash_map<unsigned int,google_object *,cpp_tommy_inthash_u32,std::equal_to<unsigned int>,google::libc_allocator_with_realloc<std::pair<unsigned int const ,google_object *> > >::SetKey,std::equal_to<unsigned int>,google::libc_allocator_with_realloc<std::pair<unsigned int const ,google_object *> > >,bool>::_Pair_base<google::dense_hashtable_iterator<std::pair<unsigned int const ,google_object *>,unsigned int,cpp_tommy_inthash_u32,google::dense_hash_map<unsigned int,google_object *,cpp_tommy_inthash_u32,std::equal_to<unsigned int>,google::libc_allocator_with_realloc<std::pair<unsigned int const ,google_object *> > >::SelectKey,google::dense_hash_map<unsigned int,google_object *,cpp_tommy_inthash_u32,std::equal_to<unsigned int>,google::libc_allocator_with_realloc<std::pair<unsigned int const ,google_object *> > >::SetKey,std::equal_to<unsigned int>,google::libc_allocator_with_realloc<std::pair<unsigned int const ,google_object *> > >,bool>
PUBLIC	??$move@AAU?$dense_hashtable_iterator@U?$pair@$$CBIPAUgoogle_object@@@std@@IVcpp_tommy_inthash_u32@@USelectKey@?$dense_hash_map@IPAUgoogle_object@@Vcpp_tommy_inthash_u32@@U?$equal_to@I@std@@V?$libc_allocator_with_realloc@U?$pair@$$CBIPAUgoogle_object@@@std@@@google@@@google@@USetKey@56@U?$equal_to@I@2@V?$libc_allocator_with_realloc@U?$pair@$$CBIPAUgoogle_object@@@std@@@6@@google@@@std@@YA$$QAU?$dense_hashtable_iterator@U?$pair@$$CBIPAUgoogle_object@@@std@@IVcpp_tommy_inthash_u32@@USelectKey@?$dense_hash_map@IPAUgoogle_object@@Vcpp_tommy_inthash_u32@@U?$equal_to@I@std@@V?$libc_allocator_with_realloc@U?$pair@$$CBIPAUgoogle_object@@@std@@@google@@@google@@USetKey@56@U?$equal_to@I@2@V?$libc_allocator_with_realloc@U?$pair@$$CBIPAUgoogle_object@@@std@@@6@@google@@AAU12@@Z ; std::move<google::dense_hashtable_iterator<std::pair<unsigned int const ,google_object *>,unsigned int,cpp_tommy_inthash_u32,google::dense_hash_map<unsigned int,google_object *,cpp_tommy_inthash_u32,std::equal_to<unsigned int>,google::libc_allocator_with_realloc<std::pair<unsigned int const ,google_object *> > >::SelectKey,google::dense_hash_map<unsigned int,google_object *,cpp_tommy_inthash_u32,std::equal_to<unsigned int>,google::libc_allocator_with_realloc<std::pair<unsigned int const ,google_object *> > >::SetKey,std::equal_to<unsigned int>,google::libc_allocator_with_realloc<std::pair<unsigned int const ,google_object *> > > &>
PUBLIC	??0?$pair@U?$dense_hashtable_iterator@U?$pair@$$CBIPAUgoogle_object@@@std@@IVcpp_tommy_inthash_u32@@USelectKey@?$dense_hash_map@IPAUgoogle_object@@Vcpp_tommy_inthash_u32@@U?$equal_to@I@std@@V?$libc_allocator_with_realloc@U?$pair@$$CBIPAUgoogle_object@@@std@@@google@@@google@@USetKey@56@U?$equal_to@I@2@V?$libc_allocator_with_realloc@U?$pair@$$CBIPAUgoogle_object@@@std@@@6@@google@@_N@std@@QAE@$$QAU?$dense_hashtable_iterator@U?$pair@$$CBIPAUgoogle_object@@@std@@IVcpp_tommy_inthash_u32@@USelectKey@?$dense_hash_map@IPAUgoogle_object@@Vcpp_tommy_inthash_u32@@U?$equal_to@I@std@@V?$libc_allocator_with_realloc@U?$pair@$$CBIPAUgoogle_object@@@std@@@google@@@google@@USetKey@56@U?$equal_to@I@2@V?$libc_allocator_with_realloc@U?$pair@$$CBIPAUgoogle_object@@@std@@@6@@google@@$$QA_N@Z ; std::pair<google::dense_hashtable_iterator<std::pair<unsigned int const ,google_object *>,unsigned int,cpp_tommy_inthash_u32,google::dense_hash_map<unsigned int,google_object *,cpp_tommy_inthash_u32,std::equal_to<unsigned int>,google::libc_allocator_with_realloc<std::pair<unsigned int const ,google_object *> > >::SelectKey,google::dense_hash_map<unsigned int,google_object *,cpp_tommy_inthash_u32,std::equal_to<unsigned int>,google::libc_allocator_with_realloc<std::pair<unsigned int const ,google_object *> > >::SetKey,std::equal_to<unsigned int>,google::libc_allocator_with_realloc<std::pair<unsigned int const ,google_object *> > >,bool>::pair<google::dense_hashtable_iterator<std::pair<unsigned int const ,google_object *>,unsigned int,cpp_tommy_inthash_u32,google::dense_hash_map<unsigned int,google_object *,cpp_tommy_inthash_u32,std::equal_to<unsigned int>,google::libc_allocator_with_realloc<std::pair<unsigned int const ,google_object *> > >::SelectKey,google::dense_hash_map<unsigned int,google_object *,cpp_tommy_inthash_u32,std::equal_to<unsigned int>,google::libc_allocator_with_realloc<std::pair<unsigned int const ,google_object *> > >::SetKey,std::equal_to<unsigned int>,google::libc_allocator_with_realloc<std::pair<unsigned int const ,google_object *> > >,bool>
PUBLIC	?insert_noresize@?$dense_hashtable@U?$pair@$$CBIPAUgoogle_object@@@std@@IVcpp_tommy_inthash_u32@@USelectKey@?$dense_hash_map@IPAUgoogle_object@@Vcpp_tommy_inthash_u32@@U?$equal_to@I@std@@V?$libc_allocator_with_realloc@U?$pair@$$CBIPAUgoogle_object@@@std@@@google@@@google@@USetKey@56@U?$equal_to@I@2@V?$libc_allocator_with_realloc@U?$pair@$$CBIPAUgoogle_object@@@std@@@6@@google@@AAE?AU?$pair@U?$dense_hashtable_iterator@U?$pair@$$CBIPAUgoogle_object@@@std@@IVcpp_tommy_inthash_u32@@USelectKey@?$dense_hash_map@IPAUgoogle_object@@Vcpp_tommy_inthash_u32@@U?$equal_to@I@std@@V?$libc_allocator_with_realloc@U?$pair@$$CBIPAUgoogle_object@@@std@@@google@@@google@@USetKey@56@U?$equal_to@I@2@V?$libc_allocator_with_realloc@U?$pair@$$CBIPAUgoogle_object@@@std@@@6@@google@@_N@std@@ABU?$pair@$$CBIPAUgoogle_object@@@4@@Z ; google::dense_hashtable<std::pair<unsigned int const ,google_object *>,unsigned int,cpp_tommy_inthash_u32,google::dense_hash_map<unsigned int,google_object *,cpp_tommy_inthash_u32,std::equal_to<unsigned int>,google::libc_allocator_with_realloc<std::pair<unsigned int const ,google_object *> > >::SelectKey,google::dense_hash_map<unsigned int,google_object *,cpp_tommy_inthash_u32,std::equal_to<unsigned int>,google::libc_allocator_with_realloc<std::pair<unsigned int const ,google_object *> > >::SetKey,std::equal_to<unsigned int>,google::libc_allocator_with_realloc<std::pair<unsigned int const ,google_object *> > >::insert_noresize
PUBLIC	??RDefaultValue@?$dense_hash_map@IPAUgoogle_object@@Vcpp_tommy_inthash_u32@@U?$equal_to@I@std@@V?$libc_allocator_with_realloc@U?$pair@$$CBIPAUgoogle_object@@@std@@@google@@@google@@QAE?AU?$pair@$$CBIPAUgoogle_object@@@std@@ABI@Z ; google::dense_hash_map<unsigned int,google_object *,cpp_tommy_inthash_u32,std::equal_to<unsigned int>,google::libc_allocator_with_realloc<std::pair<unsigned int const ,google_object *> > >::DefaultValue::operator()
PUBLIC	??$find_or_insert@UDefaultValue@?$dense_hash_map@IPAUgoogle_object@@Vcpp_tommy_inthash_u32@@U?$equal_to@I@std@@V?$libc_allocator_with_realloc@U?$pair@$$CBIPAUgoogle_object@@@std@@@google@@@google@@@?$dense_hashtable@U?$pair@$$CBIPAUgoogle_object@@@std@@IVcpp_tommy_inthash_u32@@USelectKey@?$dense_hash_map@IPAUgoogle_object@@Vcpp_tommy_inthash_u32@@U?$equal_to@I@std@@V?$libc_allocator_with_realloc@U?$pair@$$CBIPAUgoogle_object@@@std@@@google@@@google@@USetKey@56@U?$equal_to@I@2@V?$libc_allocator_with_realloc@U?$pair@$$CBIPAUgoogle_object@@@std@@@6@@google@@QAEAAU?$pair@$$CBIPAUgoogle_object@@@std@@ABI@Z ; google::dense_hashtable<std::pair<unsigned int const ,google_object *>,unsigned int,cpp_tommy_inthash_u32,google::dense_hash_map<unsigned int,google_object *,cpp_tommy_inthash_u32,std::equal_to<unsigned int>,google::libc_allocator_with_realloc<std::pair<unsigned int const ,google_object *> > >::SelectKey,google::dense_hash_map<unsigned int,google_object *,cpp_tommy_inthash_u32,std::equal_to<unsigned int>,google::libc_allocator_with_realloc<std::pair<unsigned int const ,google_object *> > >::SetKey,std::equal_to<unsigned int>,google::libc_allocator_with_realloc<std::pair<unsigned int const ,google_object *> > >::find_or_insert<google::dense_hash_map<unsigned int,google_object *,cpp_tommy_inthash_u32,std::equal_to<unsigned int>,google::libc_allocator_with_realloc<std::pair<unsigned int const ,google_object *> > >::DefaultValue>
PUBLIC	??A?$dense_hash_map@IPAUgoogle_object@@Vcpp_tommy_inthash_u32@@U?$equal_to@I@std@@V?$libc_allocator_with_realloc@U?$pair@$$CBIPAUgoogle_object@@@std@@@google@@@google@@QAEAAPAUgoogle_object@@ABI@Z ; google::dense_hash_map<unsigned int,google_object *,cpp_tommy_inthash_u32,std::equal_to<unsigned int>,google::libc_allocator_with_realloc<std::pair<unsigned int const ,google_object *> > >::operator[]
PUBLIC	??0generate_value@?$btree_map_container@V?$btree@U?$btree_map_params@IPAUgoogle_object@@U?$less@I@std@@V?$allocator@U?$pair@$$CBIPAUgoogle_object@@@std@@@3@$0BAA@@0@@btree@@@btree@@QAE@ABI@Z ; btree::btree_map_container<btree::btree<btree::btree_map_params<unsigned int,google_object *,std::less<unsigned int>,std::allocator<std::pair<unsigned int const ,google_object *> >,256> > >::generate_value::generate_value
PUBLIC	?new_leaf_root_node@?$btree@U?$btree_map_params@IPAUgoogle_object@@U?$less@I@std@@V?$allocator@U?$pair@$$CBIPAUgoogle_object@@@std@@@3@$0BAA@@0@@btree@@AAEPAV?$btree_node@U?$btree_map_params@IPAUgoogle_object@@U?$less@I@std@@V?$allocator@U?$pair@$$CBIPAUgoogle_object@@@std@@@3@$0BAA@@btree@@@2@H@Z ; btree::btree<btree::btree_map_params<unsigned int,google_object *,std::less<unsigned int>,std::allocator<std::pair<unsigned int const ,google_object *> >,256> >::new_leaf_root_node
PUBLIC	??0?$_Pair_base@IPAUgoogle_object@@@std@@QAE@ABIABQAUgoogle_object@@@Z ; std::_Pair_base<unsigned int,google_object *>::_Pair_base<unsigned int,google_object *>
PUBLIC	??$?0$$CBIPAUgoogle_object@@@?$pair@IPAUgoogle_object@@@std@@QAE@ABU?$pair@$$CBIPAUgoogle_object@@@1@@Z ; std::pair<unsigned int,google_object *>::pair<unsigned int,google_object *><unsigned int const ,google_object *>
PUBLIC	?value_init@?$btree_node@U?$btree_map_params@IPAUgoogle_object@@U?$less@I@std@@V?$allocator@U?$pair@$$CBIPAUgoogle_object@@@std@@@3@$0BAA@@btree@@@btree@@AAEXHABU?$pair@$$CBIPAUgoogle_object@@@std@@@Z ; btree::btree_node<btree::btree_map_params<unsigned int,google_object *,std::less<unsigned int>,std::allocator<std::pair<unsigned int const ,google_object *> >,256> >::value_init
PUBLIC	?insert_value@?$btree_node@U?$btree_map_params@IPAUgoogle_object@@U?$less@I@std@@V?$allocator@U?$pair@$$CBIPAUgoogle_object@@@std@@@3@$0BAA@@btree@@@btree@@QAEXHABU?$pair@$$CBIPAUgoogle_object@@@std@@@Z ; btree::btree_node<btree::btree_map_params<unsigned int,google_object *,std::less<unsigned int>,std::allocator<std::pair<unsigned int const ,google_object *> >,256> >::insert_value
PUBLIC	?split@?$btree_node@U?$btree_map_params@IPAUgoogle_object@@U?$less@I@std@@V?$allocator@U?$pair@$$CBIPAUgoogle_object@@@std@@@3@$0BAA@@btree@@@btree@@QAEXPAV12@H@Z ; btree::btree_node<btree::btree_map_params<unsigned int,google_object *,std::less<unsigned int>,std::allocator<std::pair<unsigned int const ,google_object *> >,256> >::split
PUBLIC	?new_internal_node@?$btree@U?$btree_map_params@IPAUgoogle_object@@U?$less@I@std@@V?$allocator@U?$pair@$$CBIPAUgoogle_object@@@std@@@3@$0BAA@@0@@btree@@AAEPAV?$btree_node@U?$btree_map_params@IPAUgoogle_object@@U?$less@I@std@@V?$allocator@U?$pair@$$CBIPAUgoogle_object@@@std@@@3@$0BAA@@btree@@@2@PAV32@@Z ; btree::btree<btree::btree_map_params<unsigned int,google_object *,std::less<unsigned int>,std::allocator<std::pair<unsigned int const ,google_object *> >,256> >::new_internal_node
PUBLIC	?init_internal@?$btree_node@U?$btree_map_params@IPAUgoogle_object@@U?$less@I@std@@V?$allocator@U?$pair@$$CBIPAUgoogle_object@@@std@@@3@$0BAA@@btree@@@btree@@SAPAV12@PAUinternal_fields@12@PAV12@@Z ; btree::btree_node<btree::btree_map_params<unsigned int,google_object *,std::less<unsigned int>,std::allocator<std::pair<unsigned int const ,google_object *> >,256> >::init_internal
PUBLIC	?init_root@?$btree_node@U?$btree_map_params@IPAUgoogle_object@@U?$less@I@std@@V?$allocator@U?$pair@$$CBIPAUgoogle_object@@@std@@@3@$0BAA@@btree@@@btree@@SAPAV12@PAUroot_fields@12@PAV12@@Z ; btree::btree_node<btree::btree_map_params<unsigned int,google_object *,std::less<unsigned int>,std::allocator<std::pair<unsigned int const ,google_object *> >,256> >::init_root
PUBLIC	?new_internal_root_node@?$btree@U?$btree_map_params@IPAUgoogle_object@@U?$less@I@std@@V?$allocator@U?$pair@$$CBIPAUgoogle_object@@@std@@@3@$0BAA@@0@@btree@@AAEPAV?$btree_node@U?$btree_map_params@IPAUgoogle_object@@U?$less@I@std@@V?$allocator@U?$pair@$$CBIPAUgoogle_object@@@std@@@3@$0BAA@@btree@@@2@XZ ; btree::btree<btree::btree_map_params<unsigned int,google_object *,std::less<unsigned int>,std::allocator<std::pair<unsigned int const ,google_object *> >,256> >::new_internal_root_node
PUBLIC	??$_Allocate@D@std@@YAPADIPAD@Z			; std::_Allocate<char>
PUBLIC	?allocate@?$allocator@D@std@@QAEPADI@Z		; std::allocator<char>::allocate
PUBLIC	?init_leaf@?$btree_node@U?$btree_map_params@IPAUgoogle_object@@U?$less@I@std@@V?$allocator@U?$pair@$$CBIPAUgoogle_object@@@std@@@3@$0BAA@@btree@@@btree@@SAPAV12@PAUleaf_fields@12@PAV12@H@Z ; btree::btree_node<btree::btree_map_params<unsigned int,google_object *,std::less<unsigned int>,std::allocator<std::pair<unsigned int const ,google_object *> >,256> >::init_leaf
PUBLIC	?new_leaf_node@?$btree@U?$btree_map_params@IPAUgoogle_object@@U?$less@I@std@@V?$allocator@U?$pair@$$CBIPAUgoogle_object@@@std@@@3@$0BAA@@0@@btree@@AAEPAV?$btree_node@U?$btree_map_params@IPAUgoogle_object@@U?$less@I@std@@V?$allocator@U?$pair@$$CBIPAUgoogle_object@@@std@@@3@$0BAA@@btree@@@2@PAV32@@Z ; btree::btree<btree::btree_map_params<unsigned int,google_object *,std::less<unsigned int>,std::allocator<std::pair<unsigned int const ,google_object *> >,256> >::new_leaf_node
PUBLIC	?rebalance_or_split@?$btree@U?$btree_map_params@IPAUgoogle_object@@U?$less@I@std@@V?$allocator@U?$pair@$$CBIPAUgoogle_object@@@std@@@3@$0BAA@@0@@btree@@AAEXPAU?$btree_iterator@V?$btree_node@U?$btree_map_params@IPAUgoogle_object@@U?$less@I@std@@V?$allocator@U?$pair@$$CBIPAUgoogle_object@@@std@@@3@$0BAA@@btree@@@btree@@AAU?$pair@$$CBIPAUgoogle_object@@@std@@PAU34@@2@@Z ; btree::btree<btree::btree_map_params<unsigned int,google_object *,std::less<unsigned int>,std::allocator<std::pair<unsigned int const ,google_object *> >,256> >::rebalance_or_split
PUBLIC	?internal_insert@?$btree@U?$btree_map_params@IPAUgoogle_object@@U?$less@I@std@@V?$allocator@U?$pair@$$CBIPAUgoogle_object@@@std@@@3@$0BAA@@0@@btree@@AAE?AU?$btree_iterator@V?$btree_node@U?$btree_map_params@IPAUgoogle_object@@U?$less@I@std@@V?$allocator@U?$pair@$$CBIPAUgoogle_object@@@std@@@3@$0BAA@@btree@@@btree@@AAU?$pair@$$CBIPAUgoogle_object@@@std@@PAU34@@2@U32@ABU?$pair@$$CBIPAUgoogle_object@@@std@@@Z ; btree::btree<btree::btree_map_params<unsigned int,google_object *,std::less<unsigned int>,std::allocator<std::pair<unsigned int const ,google_object *> >,256> >::internal_insert
PUBLIC	??$?0AAIPAUgoogle_object@@@?$_Pair_base@IPAUgoogle_object@@@std@@QAE@AAI$$QAPAUgoogle_object@@@Z ; std::_Pair_base<unsigned int,google_object *>::_Pair_base<unsigned int,google_object *><unsigned int &,google_object *>
PUBLIC	??$?0AAIPAUgoogle_object@@@?$pair@IPAUgoogle_object@@@std@@QAE@AAI$$QAPAUgoogle_object@@@Z ; std::pair<unsigned int,google_object *>::pair<unsigned int,google_object *><unsigned int &,google_object *>
PUBLIC	??$make_pair@IPAUgoogle_object@@@std@@YA?AU?$pair@IPAUgoogle_object@@@0@ABI$$QAPAUgoogle_object@@@Z ; std::make_pair<unsigned int,google_object *>
PUBLIC	??$forward@PAUgoogle_object@@@std@@YA$$QAPAUgoogle_object@@AAPAU1@@Z ; std::forward<google_object *>
PUBLIC	??$forward@I@std@@YA$$QAIAAI@Z			; std::forward<unsigned int>
PUBLIC	??$?0IPAUgoogle_object@@@?$_Pair_base@$$CBIPAUgoogle_object@@@std@@QAE@$$QAI$$QAPAUgoogle_object@@@Z ; std::_Pair_base<unsigned int const ,google_object *>::_Pair_base<unsigned int const ,google_object *><unsigned int,google_object *>
PUBLIC	??$?0IPAUgoogle_object@@@?$pair@$$CBIPAUgoogle_object@@@std@@QAE@$$QAU?$pair@IPAUgoogle_object@@@1@@Z ; std::pair<unsigned int const ,google_object *>::pair<unsigned int const ,google_object *><unsigned int,google_object *>
PUBLIC	??Dgenerate_value@?$btree_map_container@V?$btree@U?$btree_map_params@IPAUgoogle_object@@U?$less@I@std@@V?$allocator@U?$pair@$$CBIPAUgoogle_object@@@std@@@3@$0BAA@@0@@btree@@@btree@@QBE?AU?$pair@$$CBIPAUgoogle_object@@@std@@XZ ; btree::btree_map_container<btree::btree<btree::btree_map_params<unsigned int,google_object *,std::less<unsigned int>,std::allocator<std::pair<unsigned int const ,google_object *> >,256> > >::generate_value::operator*
PUBLIC	??0?$_Pair_base@U?$btree_iterator@V?$btree_node@U?$btree_map_params@IPAUgoogle_object@@U?$less@I@std@@V?$allocator@U?$pair@$$CBIPAUgoogle_object@@@std@@@3@$0BAA@@btree@@@btree@@AAU?$pair@$$CBIPAUgoogle_object@@@std@@PAU34@@btree@@_N@std@@QAE@$$QAU?$btree_iterator@V?$btree_node@U?$btree_map_params@IPAUgoogle_object@@U?$less@I@std@@V?$allocator@U?$pair@$$CBIPAUgoogle_object@@@std@@@3@$0BAA@@btree@@@btree@@AAU?$pair@$$CBIPAUgoogle_object@@@std@@PAU34@@btree@@$$QA_N@Z ; std::_Pair_base<btree::btree_iterator<btree::btree_node<btree::btree_map_params<unsigned int,google_object *,std::less<unsigned int>,std::allocator<std::pair<unsigned int const ,google_object *> >,256> >,std::pair<unsigned int const ,google_object *> &,std::pair<unsigned int const ,google_object *> *>,bool>::_Pair_base<btree::btree_iterator<btree::btree_node<btree::btree_map_params<unsigned int,google_object *,std::less<unsigned int>,std::allocator<std::pair<unsigned int const ,google_object *> >,256> >,std::pair<unsigned int const ,google_object *> &,std::pair<unsigned int const ,google_object *> *>,bool>
PUBLIC	??$move@AAU?$btree_iterator@V?$btree_node@U?$btree_map_params@IPAUgoogle_object@@U?$less@I@std@@V?$allocator@U?$pair@$$CBIPAUgoogle_object@@@std@@@3@$0BAA@@btree@@@btree@@AAU?$pair@$$CBIPAUgoogle_object@@@std@@PAU34@@btree@@@std@@YA$$QAU?$btree_iterator@V?$btree_node@U?$btree_map_params@IPAUgoogle_object@@U?$less@I@std@@V?$allocator@U?$pair@$$CBIPAUgoogle_object@@@std@@@3@$0BAA@@btree@@@btree@@AAU?$pair@$$CBIPAUgoogle_object@@@std@@PAU34@@btree@@AAU12@@Z ; std::move<btree::btree_iterator<btree::btree_node<btree::btree_map_params<unsigned int,google_object *,std::less<unsigned int>,std::allocator<std::pair<unsigned int const ,google_object *> >,256> >,std::pair<unsigned int const ,google_object *> &,std::pair<unsigned int const ,google_object *> *> &>
PUBLIC	??0?$pair@U?$btree_iterator@V?$btree_node@U?$btree_map_params@IPAUgoogle_object@@U?$less@I@std@@V?$allocator@U?$pair@$$CBIPAUgoogle_object@@@std@@@3@$0BAA@@btree@@@btree@@AAU?$pair@$$CBIPAUgoogle_object@@@std@@PAU34@@btree@@_N@std@@QAE@$$QAU?$btree_iterator@V?$btree_node@U?$btree_map_params@IPAUgoogle_object@@U?$less@I@std@@V?$allocator@U?$pair@$$CBIPAUgoogle_object@@@std@@@3@$0BAA@@btree@@@btree@@AAU?$pair@$$CBIPAUgoogle_object@@@std@@PAU34@@btree@@$$QA_N@Z ; std::pair<btree::btree_iterator<btree::btree_node<btree::btree_map_params<unsigned int,google_object *,std::less<unsigned int>,std::allocator<std::pair<unsigned int const ,google_object *> >,256> >,std::pair<unsigned int const ,google_object *> &,std::pair<unsigned int const ,google_object *> *>,bool>::pair<btree::btree_iterator<btree::btree_node<btree::btree_map_params<unsigned int,google_object *,std::less<unsigned int>,std::allocator<std::pair<unsigned int const ,google_object *> >,256> >,std::pair<unsigned int const ,google_object *> &,std::pair<unsigned int const ,google_object *> *>,bool>
PUBLIC	??$forward@U?$btree_iterator@V?$btree_node@U?$btree_map_params@IPAUgoogle_object@@U?$less@I@std@@V?$allocator@U?$pair@$$CBIPAUgoogle_object@@@std@@@3@$0BAA@@btree@@@btree@@AAU?$pair@$$CBIPAUgoogle_object@@@std@@PAU34@@btree@@@std@@YA$$QAU?$btree_iterator@V?$btree_node@U?$btree_map_params@IPAUgoogle_object@@U?$less@I@std@@V?$allocator@U?$pair@$$CBIPAUgoogle_object@@@std@@@3@$0BAA@@btree@@@btree@@AAU?$pair@$$CBIPAUgoogle_object@@@std@@PAU34@@btree@@AAU12@@Z ; std::forward<btree::btree_iterator<btree::btree_node<btree::btree_map_params<unsigned int,google_object *,std::less<unsigned int>,std::allocator<std::pair<unsigned int const ,google_object *> >,256> >,std::pair<unsigned int const ,google_object *> &,std::pair<unsigned int const ,google_object *> *> >
PUBLIC	??$make_pair@U?$btree_iterator@V?$btree_node@U?$btree_map_params@IPAUgoogle_object@@U?$less@I@std@@V?$allocator@U?$pair@$$CBIPAUgoogle_object@@@std@@@3@$0BAA@@btree@@@btree@@AAU?$pair@$$CBIPAUgoogle_object@@@std@@PAU34@@btree@@_N@std@@YA?AU?$pair@U?$btree_iterator@V?$btree_node@U?$btree_map_params@IPAUgoogle_object@@U?$less@I@std@@V?$allocator@U?$pair@$$CBIPAUgoogle_object@@@std@@@3@$0BAA@@btree@@@btree@@AAU?$pair@$$CBIPAUgoogle_object@@@std@@PAU34@@btree@@_N@0@$$QAU?$btree_iterator@V?$btree_node@U?$btree_map_params@IPAUgoogle_object@@U?$less@I@std@@V?$allocator@U?$pair@$$CBIPAUgoogle_object@@@std@@@3@$0BAA@@btree@@@btree@@AAU?$pair@$$CBIPAUgoogle_object@@@std@@PAU34@@btree@@$$QA_N@Z ; std::make_pair<btree::btree_iterator<btree::btree_node<btree::btree_map_params<unsigned int,google_object *,std::less<unsigned int>,std::allocator<std::pair<unsigned int const ,google_object *> >,256> >,std::pair<unsigned int const ,google_object *> &,std::pair<unsigned int const ,google_object *> *>,bool>
PUBLIC	??$?0AAU?$btree_iterator@V?$btree_node@U?$btree_map_params@IPAUgoogle_object@@U?$less@I@std@@V?$allocator@U?$pair@$$CBIPAUgoogle_object@@@std@@@3@$0BAA@@btree@@@btree@@AAU?$pair@$$CBIPAUgoogle_object@@@std@@PAU34@@btree@@_N@?$_Pair_base@U?$btree_iterator@V?$btree_node@U?$btree_map_params@IPAUgoogle_object@@U?$less@I@std@@V?$allocator@U?$pair@$$CBIPAUgoogle_object@@@std@@@3@$0BAA@@btree@@@btree@@AAU?$pair@$$CBIPAUgoogle_object@@@std@@PAU34@@btree@@_N@std@@QAE@AAU?$btree_iterator@V?$btree_node@U?$btree_map_params@IPAUgoogle_object@@U?$less@I@std@@V?$allocator@U?$pair@$$CBIPAUgoogle_object@@@std@@@3@$0BAA@@btree@@@btree@@AAU?$pair@$$CBIPAUgoogle_object@@@std@@PAU34@@btree@@$$QA_N@Z ; std::_Pair_base<btree::btree_iterator<btree::btree_node<btree::btree_map_params<unsigned int,google_object *,std::less<unsigned int>,std::allocator<std::pair<unsigned int const ,google_object *> >,256> >,std::pair<unsigned int const ,google_object *> &,std::pair<unsigned int const ,google_object *> *>,bool>::_Pair_base<btree::btree_iterator<btree::btree_node<btree::btree_map_params<unsigned int,google_object *,std::less<unsigned int>,std::allocator<std::pair<unsigned int const ,google_object *> >,256> >,std::pair<unsigned int const ,google_object *> &,std::pair<unsigned int const ,google_object *> *>,bool><btree::btree_iterator<btree::btree_node<btree::btree_map_params<unsigned int,google_object *,std::less<unsigned int>,std::allocator<std::pair<unsigned int const ,google_object *> >,256> >,std::pair<unsigned int const ,google_object *> &,std::pair<unsigned int const ,google_object *> *> &,bool>
PUBLIC	??$?0AAU?$btree_iterator@V?$btree_node@U?$btree_map_params@IPAUgoogle_object@@U?$less@I@std@@V?$allocator@U?$pair@$$CBIPAUgoogle_object@@@std@@@3@$0BAA@@btree@@@btree@@AAU?$pair@$$CBIPAUgoogle_object@@@std@@PAU34@@btree@@_N@?$pair@U?$btree_iterator@V?$btree_node@U?$btree_map_params@IPAUgoogle_object@@U?$less@I@std@@V?$allocator@U?$pair@$$CBIPAUgoogle_object@@@std@@@3@$0BAA@@btree@@@btree@@AAU?$pair@$$CBIPAUgoogle_object@@@std@@PAU34@@btree@@_N@std@@QAE@AAU?$btree_iterator@V?$btree_node@U?$btree_map_params@IPAUgoogle_object@@U?$less@I@std@@V?$allocator@U?$pair@$$CBIPAUgoogle_object@@@std@@@3@$0BAA@@btree@@@btree@@AAU?$pair@$$CBIPAUgoogle_object@@@std@@PAU34@@btree@@$$QA_N@Z ; std::pair<btree::btree_iterator<btree::btree_node<btree::btree_map_params<unsigned int,google_object *,std::less<unsigned int>,std::allocator<std::pair<unsigned int const ,google_object *> >,256> >,std::pair<unsigned int const ,google_object *> &,std::pair<unsigned int const ,google_object *> *>,bool>::pair<btree::btree_iterator<btree::btree_node<btree::btree_map_params<unsigned int,google_object *,std::less<unsigned int>,std::allocator<std::pair<unsigned int const ,google_object *> >,256> >,std::pair<unsigned int const ,google_object *> &,std::pair<unsigned int const ,google_object *> *>,bool><btree::btree_iterator<btree::btree_node<btree::btree_map_params<unsigned int,google_object *,std::less<unsigned int>,std::allocator<std::pair<unsigned int const ,google_object *> >,256> >,std::pair<unsigned int const ,google_object *> &,std::pair<unsigned int const ,google_object *> *> &,bool>
PUBLIC	??$make_pair@AAU?$btree_iterator@V?$btree_node@U?$btree_map_params@IPAUgoogle_object@@U?$less@I@std@@V?$allocator@U?$pair@$$CBIPAUgoogle_object@@@std@@@3@$0BAA@@btree@@@btree@@AAU?$pair@$$CBIPAUgoogle_object@@@std@@PAU34@@btree@@_N@std@@YA?AU?$pair@U?$btree_iterator@V?$btree_node@U?$btree_map_params@IPAUgoogle_object@@U?$less@I@std@@V?$allocator@U?$pair@$$CBIPAUgoogle_object@@@std@@@3@$0BAA@@btree@@@btree@@AAU?$pair@$$CBIPAUgoogle_object@@@std@@PAU34@@btree@@_N@0@AAU?$btree_iterator@V?$btree_node@U?$btree_map_params@IPAUgoogle_object@@U?$less@I@std@@V?$allocator@U?$pair@$$CBIPAUgoogle_object@@@std@@@3@$0BAA@@btree@@@btree@@AAU?$pair@$$CBIPAUgoogle_object@@@std@@PAU34@@btree@@$$QA_N@Z ; std::make_pair<btree::btree_iterator<btree::btree_node<btree::btree_map_params<unsigned int,google_object *,std::less<unsigned int>,std::allocator<std::pair<unsigned int const ,google_object *> >,256> >,std::pair<unsigned int const ,google_object *> &,std::pair<unsigned int const ,google_object *> *> &,bool>
PUBLIC	??$insert_unique@Ugenerate_value@?$btree_map_container@V?$btree@U?$btree_map_params@IPAUgoogle_object@@U?$less@I@std@@V?$allocator@U?$pair@$$CBIPAUgoogle_object@@@std@@@3@$0BAA@@0@@btree@@@btree@@@?$btree@U?$btree_map_params@IPAUgoogle_object@@U?$less@I@std@@V?$allocator@U?$pair@$$CBIPAUgoogle_object@@@std@@@3@$0BAA@@0@@btree@@QAE?AU?$pair@U?$btree_iterator@V?$btree_node@U?$btree_map_params@IPAUgoogle_object@@U?$less@I@std@@V?$allocator@U?$pair@$$CBIPAUgoogle_object@@@std@@@3@$0BAA@@btree@@@btree@@AAU?$pair@$$CBIPAUgoogle_object@@@std@@PAU34@@btree@@_N@std@@ABIUgenerate_value@?$btree_map_container@V?$btree@U?$btree_map_params@IPAUgoogle_object@@U?$less@I@std@@V?$allocator@U?$pair@$$CBIPAUgoogle_object@@@std@@@3@$0BAA@@0@@btree@@@1@@Z ; btree::btree<btree::btree_map_params<unsigned int,google_object *,std::less<unsigned int>,std::allocator<std::pair<unsigned int const ,google_object *> >,256> >::insert_unique<btree::btree_map_container<btree::btree<btree::btree_map_params<unsigned int,google_object *,std::less<unsigned int>,std::allocator<std::pair<unsigned int const ,google_object *> >,256> > >::generate_value>
PUBLIC	??A?$btree_map_container@V?$btree@U?$btree_map_params@IPAUgoogle_object@@U?$less@I@std@@V?$allocator@U?$pair@$$CBIPAUgoogle_object@@@std@@@3@$0BAA@@0@@btree@@@btree@@QAEAAPAUgoogle_object@@ABI@Z ; btree::btree_map_container<btree::btree<btree::btree_map_params<unsigned int,google_object *,std::less<unsigned int>,std::allocator<std::pair<unsigned int const ,google_object *> >,256> > >::operator[]
PUBLIC	?size@?$_Tree@V?$_Tmap_traits@IPAUcpp_object@@U?$less@I@std@@V?$allocator@U?$pair@$$CBIPAUcpp_object@@@std@@@3@$0A@@std@@@std@@QBEIXZ ; std::_Tree<std::_Tmap_traits<unsigned int,cpp_object *,std::less<unsigned int>,std::allocator<std::pair<unsigned int const ,cpp_object *> >,0> >::size
PUBLIC	?begin@?$_Tree@V?$_Tmap_traits@IPAUcpp_object@@U?$less@I@std@@V?$allocator@U?$pair@$$CBIPAUcpp_object@@@std@@@3@$0A@@std@@@std@@QAE?AV?$_Tree_iterator@V?$_Tree_val@V?$_Tmap_traits@IPAUcpp_object@@U?$less@I@std@@V?$allocator@U?$pair@$$CBIPAUcpp_object@@@std@@@3@$0A@@std@@@std@@@2@XZ ; std::_Tree<std::_Tmap_traits<unsigned int,cpp_object *,std::less<unsigned int>,std::allocator<std::pair<unsigned int const ,cpp_object *> >,0> >::begin
PUBLIC	??F?$_Tree_iterator@V?$_Tree_val@V?$_Tmap_traits@IPAUcpp_object@@U?$less@I@std@@V?$allocator@U?$pair@$$CBIPAUcpp_object@@@std@@@3@$0A@@std@@@std@@@std@@QAEAAV01@XZ ; std::_Tree_iterator<std::_Tree_val<std::_Tmap_traits<unsigned int,cpp_object *,std::less<unsigned int>,std::allocator<std::pair<unsigned int const ,cpp_object *> >,0> > >::operator--
PUBLIC	??0?$_Pair_base@V?$_Tree_iterator@V?$_Tree_val@V?$_Tmap_traits@IPAUcpp_object@@U?$less@I@std@@V?$allocator@U?$pair@$$CBIPAUcpp_object@@@std@@@3@$0A@@std@@@std@@@std@@_N@std@@QAE@$$QAV?$_Tree_iterator@V?$_Tree_val@V?$_Tmap_traits@IPAUcpp_object@@U?$less@I@std@@V?$allocator@U?$pair@$$CBIPAUcpp_object@@@std@@@3@$0A@@std@@@std@@@1@$$QA_N@Z ; std::_Pair_base<std::_Tree_iterator<std::_Tree_val<std::_Tmap_traits<unsigned int,cpp_object *,std::less<unsigned int>,std::allocator<std::pair<unsigned int const ,cpp_object *> >,0> > >,bool>::_Pair_base<std::_Tree_iterator<std::_Tree_val<std::_Tmap_traits<unsigned int,cpp_object *,std::less<unsigned int>,std::allocator<std::pair<unsigned int const ,cpp_object *> >,0> > >,bool>
PUBLIC	??$move@AA_N@std@@YA$$QA_NAA_N@Z		; std::move<bool &>
PUBLIC	??$move@AAV?$_Tree_iterator@V?$_Tree_val@V?$_Tmap_traits@IPAUcpp_object@@U?$less@I@std@@V?$allocator@U?$pair@$$CBIPAUcpp_object@@@std@@@3@$0A@@std@@@std@@@std@@@std@@YA$$QAV?$_Tree_iterator@V?$_Tree_val@V?$_Tmap_traits@IPAUcpp_object@@U?$less@I@std@@V?$allocator@U?$pair@$$CBIPAUcpp_object@@@std@@@3@$0A@@std@@@std@@@0@AAV10@@Z ; std::move<std::_Tree_iterator<std::_Tree_val<std::_Tmap_traits<unsigned int,cpp_object *,std::less<unsigned int>,std::allocator<std::pair<unsigned int const ,cpp_object *> >,0> > > &>
PUBLIC	??0?$pair@V?$_Tree_iterator@V?$_Tree_val@V?$_Tmap_traits@IPAUcpp_object@@U?$less@I@std@@V?$allocator@U?$pair@$$CBIPAUcpp_object@@@std@@@3@$0A@@std@@@std@@@std@@_N@std@@QAE@$$QAV?$_Tree_iterator@V?$_Tree_val@V?$_Tmap_traits@IPAUcpp_object@@U?$less@I@std@@V?$allocator@U?$pair@$$CBIPAUcpp_object@@@std@@@3@$0A@@std@@@std@@@1@$$QA_N@Z ; std::pair<std::_Tree_iterator<std::_Tree_val<std::_Tmap_traits<unsigned int,cpp_object *,std::less<unsigned int>,std::allocator<std::pair<unsigned int const ,cpp_object *> >,0> > >,bool>::pair<std::_Tree_iterator<std::_Tree_val<std::_Tmap_traits<unsigned int,cpp_object *,std::less<unsigned int>,std::allocator<std::pair<unsigned int const ,cpp_object *> >,0> > >,bool>
PUBLIC	??$forward@AAV?$_Tree_iterator@V?$_Tree_val@V?$_Tmap_traits@IPAUcpp_object@@U?$less@I@std@@V?$allocator@U?$pair@$$CBIPAUcpp_object@@@std@@@3@$0A@@std@@@std@@@std@@@std@@YAAAV?$_Tree_iterator@V?$_Tree_val@V?$_Tmap_traits@IPAUcpp_object@@U?$less@I@std@@V?$allocator@U?$pair@$$CBIPAUcpp_object@@@std@@@3@$0A@@std@@@std@@@0@AAV10@@Z ; std::forward<std::_Tree_iterator<std::_Tree_val<std::_Tmap_traits<unsigned int,cpp_object *,std::less<unsigned int>,std::allocator<std::pair<unsigned int const ,cpp_object *> >,0> > > &>
PUBLIC	??$?0AAV?$_Tree_iterator@V?$_Tree_val@V?$_Tmap_traits@IPAUcpp_object@@U?$less@I@std@@V?$allocator@U?$pair@$$CBIPAUcpp_object@@@std@@@3@$0A@@std@@@std@@@std@@_N@?$_Pair_base@V?$_Tree_iterator@V?$_Tree_val@V?$_Tmap_traits@IPAUcpp_object@@U?$less@I@std@@V?$allocator@U?$pair@$$CBIPAUcpp_object@@@std@@@3@$0A@@std@@@std@@@std@@_N@std@@QAE@AAV?$_Tree_iterator@V?$_Tree_val@V?$_Tmap_traits@IPAUcpp_object@@U?$less@I@std@@V?$allocator@U?$pair@$$CBIPAUcpp_object@@@std@@@3@$0A@@std@@@std@@@1@$$QA_N@Z ; std::_Pair_base<std::_Tree_iterator<std::_Tree_val<std::_Tmap_traits<unsigned int,cpp_object *,std::less<unsigned int>,std::allocator<std::pair<unsigned int const ,cpp_object *> >,0> > >,bool>::_Pair_base<std::_Tree_iterator<std::_Tree_val<std::_Tmap_traits<unsigned int,cpp_object *,std::less<unsigned int>,std::allocator<std::pair<unsigned int const ,cpp_object *> >,0> > >,bool><std::_Tree_iterator<std::_Tree_val<std::_Tmap_traits<unsigned int,cpp_object *,std::less<unsigned int>,std::allocator<std::pair<unsigned int const ,cpp_object *> >,0> > > &,bool>
PUBLIC	??$?0AAV?$_Tree_iterator@V?$_Tree_val@V?$_Tmap_traits@IPAUcpp_object@@U?$less@I@std@@V?$allocator@U?$pair@$$CBIPAUcpp_object@@@std@@@3@$0A@@std@@@std@@@std@@_N@?$pair@V?$_Tree_iterator@V?$_Tree_val@V?$_Tmap_traits@IPAUcpp_object@@U?$less@I@std@@V?$allocator@U?$pair@$$CBIPAUcpp_object@@@std@@@3@$0A@@std@@@std@@@std@@_N@std@@QAE@AAV?$_Tree_iterator@V?$_Tree_val@V?$_Tmap_traits@IPAUcpp_object@@U?$less@I@std@@V?$allocator@U?$pair@$$CBIPAUcpp_object@@@std@@@3@$0A@@std@@@std@@@1@$$QA_N@Z ; std::pair<std::_Tree_iterator<std::_Tree_val<std::_Tmap_traits<unsigned int,cpp_object *,std::less<unsigned int>,std::allocator<std::pair<unsigned int const ,cpp_object *> >,0> > >,bool>::pair<std::_Tree_iterator<std::_Tree_val<std::_Tmap_traits<unsigned int,cpp_object *,std::less<unsigned int>,std::allocator<std::pair<unsigned int const ,cpp_object *> >,0> > >,bool><std::_Tree_iterator<std::_Tree_val<std::_Tmap_traits<unsigned int,cpp_object *,std::less<unsigned int>,std::allocator<std::pair<unsigned int const ,cpp_object *> >,0> > > &,bool>
PUBLIC	?_Linsert@?$_Tree@V?$_Tmap_traits@IPAUcpp_object@@U?$less@I@std@@V?$allocator@U?$pair@$$CBIPAUcpp_object@@@std@@@3@$0A@@std@@@std@@QAE?AU?$pair@V?$_Tree_iterator@V?$_Tree_val@V?$_Tmap_traits@IPAUcpp_object@@U?$less@I@std@@V?$allocator@U?$pair@$$CBIPAUcpp_object@@@std@@@3@$0A@@std@@@std@@@std@@_N@2@PAU_Node@?$_Tree_nod@V?$_Tmap_traits@IPAUcpp_object@@U?$less@I@std@@V?$allocator@U?$pair@$$CBIPAUcpp_object@@@std@@@3@$0A@@std@@@2@_N@Z ; std::_Tree<std::_Tmap_traits<unsigned int,cpp_object *,std::less<unsigned int>,std::allocator<std::pair<unsigned int const ,cpp_object *> >,0> >::_Linsert
PUBLIC	?max_size@?$_Tree@V?$_Tmap_traits@IPAUcpp_object@@U?$less@I@std@@V?$allocator@U?$pair@$$CBIPAUcpp_object@@@std@@@3@$0A@@std@@@std@@QBEIXZ ; std::_Tree<std::_Tmap_traits<unsigned int,cpp_object *,std::less<unsigned int>,std::allocator<std::pair<unsigned int const ,cpp_object *> >,0> >::max_size
PUBLIC	?_Insert@?$_Tree@V?$_Tmap_traits@IPAUcpp_object@@U?$less@I@std@@V?$allocator@U?$pair@$$CBIPAUcpp_object@@@std@@@3@$0A@@std@@@std@@IAE?AV?$_Tree_iterator@V?$_Tree_val@V?$_Tmap_traits@IPAUcpp_object@@U?$less@I@std@@V?$allocator@U?$pair@$$CBIPAUcpp_object@@@std@@@3@$0A@@std@@@std@@@2@_NPAU_Node@?$_Tree_nod@V?$_Tmap_traits@IPAUcpp_object@@U?$less@I@std@@V?$allocator@U?$pair@$$CBIPAUcpp_object@@@std@@@3@$0A@@std@@@2@1@Z ; std::_Tree<std::_Tmap_traits<unsigned int,cpp_object *,std::less<unsigned int>,std::allocator<std::pair<unsigned int const ,cpp_object *> >,0> >::_Insert
PUBLIC	??0?$_Tree_unchecked_const_iterator@V?$_Tree_val@V?$_Tmap_traits@IPAUcpp_object@@U?$less@I@std@@V?$allocator@U?$pair@$$CBIPAUcpp_object@@@std@@@3@$0A@@std@@@std@@U_Iterator_base0@2@@std@@QAE@XZ ; std::_Tree_unchecked_const_iterator<std::_Tree_val<std::_Tmap_traits<unsigned int,cpp_object *,std::less<unsigned int>,std::allocator<std::pair<unsigned int const ,cpp_object *> >,0> >,std::_Iterator_base0>::_Tree_unchecked_const_iterator<std::_Tree_val<std::_Tmap_traits<unsigned int,cpp_object *,std::less<unsigned int>,std::allocator<std::pair<unsigned int const ,cpp_object *> >,0> >,std::_Iterator_base0>
PUBLIC	??0?$_Tree_const_iterator@V?$_Tree_val@V?$_Tmap_traits@IPAUcpp_object@@U?$less@I@std@@V?$allocator@U?$pair@$$CBIPAUcpp_object@@@std@@@3@$0A@@std@@@std@@@std@@QAE@XZ ; std::_Tree_const_iterator<std::_Tree_val<std::_Tmap_traits<unsigned int,cpp_object *,std::less<unsigned int>,std::allocator<std::pair<unsigned int const ,cpp_object *> >,0> > >::_Tree_const_iterator<std::_Tree_val<std::_Tmap_traits<unsigned int,cpp_object *,std::less<unsigned int>,std::allocator<std::pair<unsigned int const ,cpp_object *> >,0> > >
PUBLIC	??F?$_Tree_unchecked_const_iterator@V?$_Tree_val@V?$_Tmap_traits@IPAUcpp_object@@U?$less@I@std@@V?$allocator@U?$pair@$$CBIPAUcpp_object@@@std@@@3@$0A@@std@@@std@@U_Iterator_base0@2@@std@@QAEAAV01@XZ ; std::_Tree_unchecked_const_iterator<std::_Tree_val<std::_Tmap_traits<unsigned int,cpp_object *,std::less<unsigned int>,std::allocator<std::pair<unsigned int const ,cpp_object *> >,0> >,std::_Iterator_base0>::operator--
PUBLIC	??F?$_Tree_const_iterator@V?$_Tree_val@V?$_Tmap_traits@IPAUcpp_object@@U?$less@I@std@@V?$allocator@U?$pair@$$CBIPAUcpp_object@@@std@@@3@$0A@@std@@@std@@@std@@QAEAAV01@XZ ; std::_Tree_const_iterator<std::_Tree_val<std::_Tmap_traits<unsigned int,cpp_object *,std::less<unsigned int>,std::allocator<std::pair<unsigned int const ,cpp_object *> >,0> > >::operator--
PUBLIC	?_Insert@?$_Tree@V?$_Tmap_traits@IPAUcpp_object@@U?$less@I@std@@V?$allocator@U?$pair@$$CBIPAUcpp_object@@@std@@@3@$0A@@std@@@std@@QAE?AV?$_Tree_iterator@V?$_Tree_val@V?$_Tmap_traits@IPAUcpp_object@@U?$less@I@std@@V?$allocator@U?$pair@$$CBIPAUcpp_object@@@std@@@3@$0A@@std@@@std@@@2@V?$_Tree_const_iterator@V?$_Tree_val@V?$_Tmap_traits@IPAUcpp_object@@U?$less@I@std@@V?$allocator@U?$pair@$$CBIPAUcpp_object@@@std@@@3@$0A@@std@@@std@@@2@PAU_Node@?$_Tree_nod@V?$_Tmap_traits@IPAUcpp_object@@U?$less@I@std@@V?$allocator@U?$pair@$$CBIPAUcpp_object@@@std@@@3@$0A@@std@@@2@@Z ; std::_Tree<std::_Tmap_traits<unsigned int,cpp_object *,std::less<unsigned int>,std::allocator<std::pair<unsigned int const ,cpp_object *> >,0> >::_Insert
PUBLIC	??$_Allocate@U_Node@?$_Tree_nod@V?$_Tmap_traits@IPAUcpp_object@@U?$less@I@std@@V?$allocator@U?$pair@$$CBIPAUcpp_object@@@std@@@3@$0A@@std@@@std@@@std@@YAPAU_Node@?$_Tree_nod@V?$_Tmap_traits@IPAUcpp_object@@U?$less@I@std@@V?$allocator@U?$pair@$$CBIPAUcpp_object@@@std@@@3@$0A@@std@@@0@IPAU120@@Z ; std::_Allocate<std::_Tree_nod<std::_Tmap_traits<unsigned int,cpp_object *,std::less<unsigned int>,std::allocator<std::pair<unsigned int const ,cpp_object *> >,0> >::_Node>
PUBLIC	?allocate@?$allocator@U_Node@?$_Tree_nod@V?$_Tmap_traits@IPAUcpp_object@@U?$less@I@std@@V?$allocator@U?$pair@$$CBIPAUcpp_object@@@std@@@3@$0A@@std@@@std@@@std@@QAEPAU_Node@?$_Tree_nod@V?$_Tmap_traits@IPAUcpp_object@@U?$less@I@std@@V?$allocator@U?$pair@$$CBIPAUcpp_object@@@std@@@3@$0A@@std@@@2@I@Z ; std::allocator<std::_Tree_nod<std::_Tmap_traits<unsigned int,cpp_object *,std::less<unsigned int>,std::allocator<std::pair<unsigned int const ,cpp_object *> >,0> >::_Node>::allocate
PUBLIC	?_Buynode@?$_Tree_val@V?$_Tmap_traits@IPAUcpp_object@@U?$less@I@std@@V?$allocator@U?$pair@$$CBIPAUcpp_object@@@std@@@3@$0A@@std@@@std@@QAEPAU_Node@?$_Tree_nod@V?$_Tmap_traits@IPAUcpp_object@@U?$less@I@std@@V?$allocator@U?$pair@$$CBIPAUcpp_object@@@std@@@3@$0A@@std@@@2@XZ ; std::_Tree_val<std::_Tmap_traits<unsigned int,cpp_object *,std::less<unsigned int>,std::allocator<std::pair<unsigned int const ,cpp_object *> >,0> >::_Buynode
PUBLIC	??$_Buynode@U?$pair@$$CBIPAUcpp_object@@@std@@@?$_Tree_val@V?$_Tmap_traits@IPAUcpp_object@@U?$less@I@std@@V?$allocator@U?$pair@$$CBIPAUcpp_object@@@std@@@3@$0A@@std@@@std@@QAEPAU_Node@?$_Tree_nod@V?$_Tmap_traits@IPAUcpp_object@@U?$less@I@std@@V?$allocator@U?$pair@$$CBIPAUcpp_object@@@std@@@3@$0A@@std@@@1@$$QAU?$pair@$$CBIPAUcpp_object@@@1@@Z ; std::_Tree_val<std::_Tmap_traits<unsigned int,cpp_object *,std::less<unsigned int>,std::allocator<std::pair<unsigned int const ,cpp_object *> >,0> >::_Buynode<std::pair<unsigned int const ,cpp_object *> >
PUBLIC	??$insert@U?$pair@$$CBIPAUcpp_object@@@std@@@?$_Tree@V?$_Tmap_traits@IPAUcpp_object@@U?$less@I@std@@V?$allocator@U?$pair@$$CBIPAUcpp_object@@@std@@@3@$0A@@std@@@std@@QAE?AV?$_Tree_iterator@V?$_Tree_val@V?$_Tmap_traits@IPAUcpp_object@@U?$less@I@std@@V?$allocator@U?$pair@$$CBIPAUcpp_object@@@std@@@3@$0A@@std@@@std@@@1@V?$_Tree_const_iterator@V?$_Tree_val@V?$_Tmap_traits@IPAUcpp_object@@U?$less@I@std@@V?$allocator@U?$pair@$$CBIPAUcpp_object@@@std@@@3@$0A@@std@@@std@@@1@$$QAU?$pair@$$CBIPAUcpp_object@@@1@@Z ; std::_Tree<std::_Tmap_traits<unsigned int,cpp_object *,std::less<unsigned int>,std::allocator<std::pair<unsigned int const ,cpp_object *> >,0> >::insert<std::pair<unsigned int const ,cpp_object *> >
PUBLIC	??A?$map@IPAUcpp_object@@U?$less@I@std@@V?$allocator@U?$pair@$$CBIPAUcpp_object@@@std@@@3@@std@@QAEAAPAUcpp_object@@ABI@Z ; std::map<unsigned int,cpp_object *,std::less<unsigned int>,std::allocator<std::pair<unsigned int const ,cpp_object *> > >::operator[]
PUBLIC	??0?$_Pair_base@$$CBIPAUcpp_object@@@std@@QAE@ABI$$QAPAUcpp_object@@@Z ; std::_Pair_base<unsigned int const ,cpp_object *>::_Pair_base<unsigned int const ,cpp_object *>
PUBLIC	??0?$pair@$$CBIPAUcpp_object@@@std@@QAE@ABI$$QAPAUcpp_object@@@Z ; std::pair<unsigned int const ,cpp_object *>::pair<unsigned int const ,cpp_object *>
PUBLIC	?front@?$list@U?$pair@$$CBIPAUcpp_object@@@std@@V?$allocator@U?$pair@$$CBIPAUcpp_object@@@std@@@2@@std@@QAEAAU?$pair@$$CBIPAUcpp_object@@@2@XZ ; std::list<std::pair<unsigned int const ,cpp_object *>,std::allocator<std::pair<unsigned int const ,cpp_object *> > >::front
PUBLIC	?_Splice_same@?$list@U?$pair@$$CBIPAUcpp_object@@@std@@V?$allocator@U?$pair@$$CBIPAUcpp_object@@@std@@@2@@std@@QAEXV?$_List_const_iterator@V?$_List_val@U?$pair@$$CBIPAUcpp_object@@@std@@V?$allocator@U?$pair@$$CBIPAUcpp_object@@@std@@@2@@std@@@2@AAV12@00I@Z ; std::list<std::pair<unsigned int const ,cpp_object *>,std::allocator<std::pair<unsigned int const ,cpp_object *> > >::_Splice_same
PUBLIC	?_Insert_bucket@?$_Hash@V?$_Umap_traits@IPAUcpp_object@@V?$_Hash_compare@IVcpp_tommy_inthash_u32@@U?$equal_to@I@std@@@std@@V?$allocator@U?$pair@$$CBIPAUcpp_object@@@std@@@3@$0A@@tr1@std@@@std@@IAEXV?$_List_iterator@V?$_List_val@U?$pair@$$CBIPAUcpp_object@@@std@@V?$allocator@U?$pair@$$CBIPAUcpp_object@@@std@@@2@@std@@@2@0I@Z ; std::_Hash<std::tr1::_Umap_traits<unsigned int,cpp_object *,std::_Hash_compare<unsigned int,cpp_tommy_inthash_u32,std::equal_to<unsigned int> >,std::allocator<std::pair<unsigned int const ,cpp_object *> >,0> >::_Insert_bucket
PUBLIC	?size@?$list@U?$pair@$$CBIPAUcpp_object@@@std@@V?$allocator@U?$pair@$$CBIPAUcpp_object@@@std@@@2@@std@@QBEIXZ ; std::list<std::pair<unsigned int const ,cpp_object *>,std::allocator<std::pair<unsigned int const ,cpp_object *> > >::size
PUBLIC	?size@?$_Hash@V?$_Umap_traits@IPAUcpp_object@@V?$_Hash_compare@IVcpp_tommy_inthash_u32@@U?$equal_to@I@std@@@std@@V?$allocator@U?$pair@$$CBIPAUcpp_object@@@std@@@3@$0A@@tr1@std@@@std@@QBEIXZ ; std::_Hash<std::tr1::_Umap_traits<unsigned int,cpp_object *,std::_Hash_compare<unsigned int,cpp_tommy_inthash_u32,std::equal_to<unsigned int> >,std::allocator<std::pair<unsigned int const ,cpp_object *> >,0> >::size
PUBLIC	?bucket_count@?$_Hash@V?$_Umap_traits@IPAUcpp_object@@V?$_Hash_compare@IVcpp_tommy_inthash_u32@@U?$equal_to@I@std@@@std@@V?$allocator@U?$pair@$$CBIPAUcpp_object@@@std@@@3@$0A@@tr1@std@@@std@@QBEIXZ ; std::_Hash<std::tr1::_Umap_traits<unsigned int,cpp_object *,std::_Hash_compare<unsigned int,cpp_tommy_inthash_u32,std::equal_to<unsigned int> >,std::allocator<std::pair<unsigned int const ,cpp_object *> >,0> >::bucket_count
PUBLIC	?load_factor@?$_Hash@V?$_Umap_traits@IPAUcpp_object@@V?$_Hash_compare@IVcpp_tommy_inthash_u32@@U?$equal_to@I@std@@@std@@V?$allocator@U?$pair@$$CBIPAUcpp_object@@@std@@@3@$0A@@tr1@std@@@std@@QBEMXZ ; std::_Hash<std::tr1::_Umap_traits<unsigned int,cpp_object *,std::_Hash_compare<unsigned int,cpp_tommy_inthash_u32,std::equal_to<unsigned int> >,std::allocator<std::pair<unsigned int const ,cpp_object *> >,0> >::load_factor
PUBLIC	?max_load_factor@?$_Hash@V?$_Umap_traits@IPAUcpp_object@@V?$_Hash_compare@IVcpp_tommy_inthash_u32@@U?$equal_to@I@std@@@std@@V?$allocator@U?$pair@$$CBIPAUcpp_object@@@std@@@3@$0A@@tr1@std@@@std@@QBEMXZ ; std::_Hash<std::tr1::_Umap_traits<unsigned int,cpp_object *,std::_Hash_compare<unsigned int,cpp_tommy_inthash_u32,std::equal_to<unsigned int> >,std::allocator<std::pair<unsigned int const ,cpp_object *> >,0> >::max_load_factor
PUBLIC	?begin@?$vector@V?$_List_iterator@V?$_List_val@U?$pair@$$CBIPAUcpp_object@@@std@@V?$allocator@U?$pair@$$CBIPAUcpp_object@@@std@@@2@@std@@@std@@V?$allocator@V?$_List_iterator@V?$_List_val@U?$pair@$$CBIPAUcpp_object@@@std@@V?$allocator@U?$pair@$$CBIPAUcpp_object@@@std@@@2@@std@@@std@@@2@@std@@QAE?AV?$_Vector_iterator@V?$_Vector_val@V?$_List_iterator@V?$_List_val@U?$pair@$$CBIPAUcpp_object@@@std@@V?$allocator@U?$pair@$$CBIPAUcpp_object@@@std@@@2@@std@@@std@@V?$allocator@V?$_List_iterator@V?$_List_val@U?$pair@$$CBIPAUcpp_object@@@std@@V?$allocator@U?$pair@$$CBIPAUcpp_object@@@std@@@2@@std@@@std@@@2@@std@@@2@XZ ; std::vector<std::_List_iterator<std::_List_val<std::pair<unsigned int const ,cpp_object *>,std::allocator<std::pair<unsigned int const ,cpp_object *> > > >,std::allocator<std::_List_iterator<std::_List_val<std::pair<unsigned int const ,cpp_object *>,std::allocator<std::pair<unsigned int const ,cpp_object *> > > > > >::begin
PUBLIC	?end@?$vector@V?$_List_iterator@V?$_List_val@U?$pair@$$CBIPAUcpp_object@@@std@@V?$allocator@U?$pair@$$CBIPAUcpp_object@@@std@@@2@@std@@@std@@V?$allocator@V?$_List_iterator@V?$_List_val@U?$pair@$$CBIPAUcpp_object@@@std@@V?$allocator@U?$pair@$$CBIPAUcpp_object@@@std@@@2@@std@@@std@@@2@@std@@QAE?AV?$_Vector_iterator@V?$_Vector_val@V?$_List_iterator@V?$_List_val@U?$pair@$$CBIPAUcpp_object@@@std@@V?$allocator@U?$pair@$$CBIPAUcpp_object@@@std@@@2@@std@@@std@@V?$allocator@V?$_List_iterator@V?$_List_val@U?$pair@$$CBIPAUcpp_object@@@std@@V?$allocator@U?$pair@$$CBIPAUcpp_object@@@std@@@2@@std@@@std@@@2@@std@@@2@XZ ; std::vector<std::_List_iterator<std::_List_val<std::pair<unsigned int const ,cpp_object *>,std::allocator<std::pair<unsigned int const ,cpp_object *> > > >,std::allocator<std::_List_iterator<std::_List_val<std::pair<unsigned int const ,cpp_object *>,std::allocator<std::pair<unsigned int const ,cpp_object *> > > > > >::end
PUBLIC	?_Orphan_all@_Container_base0@std@@QAEXXZ	; std::_Container_base0::_Orphan_all
PUBLIC	?deallocate@?$allocator@V?$_List_iterator@V?$_List_val@U?$pair@$$CBIPAUcpp_object@@@std@@V?$allocator@U?$pair@$$CBIPAUcpp_object@@@std@@@2@@std@@@std@@@std@@QAEXPAV?$_List_iterator@V?$_List_val@U?$pair@$$CBIPAUcpp_object@@@std@@V?$allocator@U?$pair@$$CBIPAUcpp_object@@@std@@@2@@std@@@2@I@Z ; std::allocator<std::_List_iterator<std::_List_val<std::pair<unsigned int const ,cpp_object *>,std::allocator<std::pair<unsigned int const ,cpp_object *> > > > >::deallocate
PUBLIC	??$_Allocate@V?$_List_iterator@V?$_List_val@U?$pair@$$CBIPAUcpp_object@@@std@@V?$allocator@U?$pair@$$CBIPAUcpp_object@@@std@@@2@@std@@@std@@@std@@YAPAV?$_List_iterator@V?$_List_val@U?$pair@$$CBIPAUcpp_object@@@std@@V?$allocator@U?$pair@$$CBIPAUcpp_object@@@std@@@2@@std@@@0@IPAV10@@Z ; std::_Allocate<std::_List_iterator<std::_List_val<std::pair<unsigned int const ,cpp_object *>,std::allocator<std::pair<unsigned int const ,cpp_object *> > > > >
PUBLIC	?allocate@?$allocator@V?$_List_iterator@V?$_List_val@U?$pair@$$CBIPAUcpp_object@@@std@@V?$allocator@U?$pair@$$CBIPAUcpp_object@@@std@@@2@@std@@@std@@@std@@QAEPAV?$_List_iterator@V?$_List_val@U?$pair@$$CBIPAUcpp_object@@@std@@V?$allocator@U?$pair@$$CBIPAUcpp_object@@@std@@@2@@std@@@2@I@Z ; std::allocator<std::_List_iterator<std::_List_val<std::pair<unsigned int const ,cpp_object *>,std::allocator<std::pair<unsigned int const ,cpp_object *> > > > >::allocate
PUBLIC	?size@?$vector@V?$_List_iterator@V?$_List_val@U?$pair@$$CBIPAUcpp_object@@@std@@V?$allocator@U?$pair@$$CBIPAUcpp_object@@@std@@@2@@std@@@std@@V?$allocator@V?$_List_iterator@V?$_List_val@U?$pair@$$CBIPAUcpp_object@@@std@@V?$allocator@U?$pair@$$CBIPAUcpp_object@@@std@@@2@@std@@@std@@@2@@std@@QBEIXZ ; std::vector<std::_List_iterator<std::_List_val<std::pair<unsigned int const ,cpp_object *>,std::allocator<std::pair<unsigned int const ,cpp_object *> > > >,std::allocator<std::_List_iterator<std::_List_val<std::pair<unsigned int const ,cpp_object *>,std::allocator<std::pair<unsigned int const ,cpp_object *> > > > > >::size
PUBLIC	?capacity@?$vector@V?$_List_iterator@V?$_List_val@U?$pair@$$CBIPAUcpp_object@@@std@@V?$allocator@U?$pair@$$CBIPAUcpp_object@@@std@@@2@@std@@@std@@V?$allocator@V?$_List_iterator@V?$_List_val@U?$pair@$$CBIPAUcpp_object@@@std@@V?$allocator@U?$pair@$$CBIPAUcpp_object@@@std@@@2@@std@@@std@@@2@@std@@QBEIXZ ; std::vector<std::_List_iterator<std::_List_val<std::pair<unsigned int const ,cpp_object *>,std::allocator<std::pair<unsigned int const ,cpp_object *> > > >,std::allocator<std::_List_iterator<std::_List_val<std::pair<unsigned int const ,cpp_object *>,std::allocator<std::pair<unsigned int const ,cpp_object *> > > > > >::capacity
PUBLIC	?_Grow_to@?$vector@V?$_List_iterator@V?$_List_val@U?$pair@$$CBIPAUcpp_object@@@std@@V?$allocator@U?$pair@$$CBIPAUcpp_object@@@std@@@2@@std@@@std@@V?$allocator@V?$_List_iterator@V?$_List_val@U?$pair@$$CBIPAUcpp_object@@@std@@V?$allocator@U?$pair@$$CBIPAUcpp_object@@@std@@@2@@std@@@std@@@2@@std@@IBEII@Z ; std::vector<std::_List_iterator<std::_List_val<std::pair<unsigned int const ,cpp_object *>,std::allocator<std::pair<unsigned int const ,cpp_object *> > > >,std::allocator<std::_List_iterator<std::_List_val<std::pair<unsigned int const ,cpp_object *>,std::allocator<std::pair<unsigned int const ,cpp_object *> > > > > >::_Grow_to
PUBLIC	??$_Construct@V?$_List_iterator@V?$_List_val@U?$pair@$$CBIPAUcpp_object@@@std@@V?$allocator@U?$pair@$$CBIPAUcpp_object@@@std@@@2@@std@@@std@@ABV12@@std@@YAXPAV?$_List_iterator@V?$_List_val@U?$pair@$$CBIPAUcpp_object@@@std@@V?$allocator@U?$pair@$$CBIPAUcpp_object@@@std@@@2@@std@@@0@ABV10@@Z ; std::_Construct<std::_List_iterator<std::_List_val<std::pair<unsigned int const ,cpp_object *>,std::allocator<std::pair<unsigned int const ,cpp_object *> > > >,std::_List_iterator<std::_List_val<std::pair<unsigned int const ,cpp_object *>,std::allocator<std::pair<unsigned int const ,cpp_object *> > > > const &>
PUBLIC	?construct@?$allocator@V?$_List_iterator@V?$_List_val@U?$pair@$$CBIPAUcpp_object@@@std@@V?$allocator@U?$pair@$$CBIPAUcpp_object@@@std@@@2@@std@@@std@@@std@@QAEXPAV?$_List_iterator@V?$_List_val@U?$pair@$$CBIPAUcpp_object@@@std@@V?$allocator@U?$pair@$$CBIPAUcpp_object@@@std@@@2@@std@@@2@ABV32@@Z ; std::allocator<std::_List_iterator<std::_List_val<std::pair<unsigned int const ,cpp_object *>,std::allocator<std::pair<unsigned int const ,cpp_object *> > > > >::construct
PUBLIC	??$forward@ABV?$_List_iterator@V?$_List_val@U?$pair@$$CBIPAUcpp_object@@@std@@V?$allocator@U?$pair@$$CBIPAUcpp_object@@@std@@@2@@std@@@std@@@std@@YAABV?$_List_iterator@V?$_List_val@U?$pair@$$CBIPAUcpp_object@@@std@@V?$allocator@U?$pair@$$CBIPAUcpp_object@@@std@@@2@@std@@@0@ABV10@@Z ; std::forward<std::_List_iterator<std::_List_val<std::pair<unsigned int const ,cpp_object *>,std::allocator<std::pair<unsigned int const ,cpp_object *> > > > const &>
PUBLIC	??$_Cons_val@V?$allocator@V?$_List_iterator@V?$_List_val@U?$pair@$$CBIPAUcpp_object@@@std@@V?$allocator@U?$pair@$$CBIPAUcpp_object@@@std@@@2@@std@@@std@@@std@@V?$_List_iterator@V?$_List_val@U?$pair@$$CBIPAUcpp_object@@@std@@V?$allocator@U?$pair@$$CBIPAUcpp_object@@@std@@@2@@std@@@2@ABV32@@std@@YAXAAV?$allocator@V?$_List_iterator@V?$_List_val@U?$pair@$$CBIPAUcpp_object@@@std@@V?$allocator@U?$pair@$$CBIPAUcpp_object@@@std@@@2@@std@@@std@@@0@PAV?$_List_iterator@V?$_List_val@U?$pair@$$CBIPAUcpp_object@@@std@@V?$allocator@U?$pair@$$CBIPAUcpp_object@@@std@@@2@@std@@@0@ABV20@@Z ; std::_Cons_val<std::allocator<std::_List_iterator<std::_List_val<std::pair<unsigned int const ,cpp_object *>,std::allocator<std::pair<unsigned int const ,cpp_object *> > > > >,std::_List_iterator<std::_List_val<std::pair<unsigned int const ,cpp_object *>,std::allocator<std::pair<unsigned int const ,cpp_object *> > > >,std::_List_iterator<std::_List_val<std::pair<unsigned int const ,cpp_object *>,std::allocator<std::pair<unsigned int const ,cpp_object *> > > > const &>
PUBLIC	??$_Uninit_fill_n@PAV?$_List_iterator@V?$_List_val@U?$pair@$$CBIPAUcpp_object@@@std@@V?$allocator@U?$pair@$$CBIPAUcpp_object@@@std@@@2@@std@@@std@@IV12@V?$allocator@V?$_List_iterator@V?$_List_val@U?$pair@$$CBIPAUcpp_object@@@std@@V?$allocator@U?$pair@$$CBIPAUcpp_object@@@std@@@2@@std@@@std@@@2@V12@@std@@YAXPAV?$_List_iterator@V?$_List_val@U?$pair@$$CBIPAUcpp_object@@@std@@V?$allocator@U?$pair@$$CBIPAUcpp_object@@@std@@@2@@std@@@0@IPBV10@AAV?$allocator@V?$_List_iterator@V?$_List_val@U?$pair@$$CBIPAUcpp_object@@@std@@V?$allocator@U?$pair@$$CBIPAUcpp_object@@@std@@@2@@std@@@std@@@0@0U_Nonscalar_ptr_iterator_tag@0@@Z ; std::_Uninit_fill_n<std::_List_iterator<std::_List_val<std::pair<unsigned int const ,cpp_object *>,std::allocator<std::pair<unsigned int const ,cpp_object *> > > > *,unsigned int,std::_List_iterator<std::_List_val<std::pair<unsigned int const ,cpp_object *>,std::allocator<std::pair<unsigned int const ,cpp_object *> > > >,std::allocator<std::_List_iterator<std::_List_val<std::pair<unsigned int const ,cpp_object *>,std::allocator<std::pair<unsigned int const ,cpp_object *> > > > >,std::_List_iterator<std::_List_val<std::pair<unsigned int const ,cpp_object *>,std::allocator<std::pair<unsigned int const ,cpp_object *> > > > >
PUBLIC	??$_Uninitialized_fill_n@PAV?$_List_iterator@V?$_List_val@U?$pair@$$CBIPAUcpp_object@@@std@@V?$allocator@U?$pair@$$CBIPAUcpp_object@@@std@@@2@@std@@@std@@IV12@V?$allocator@V?$_List_iterator@V?$_List_val@U?$pair@$$CBIPAUcpp_object@@@std@@V?$allocator@U?$pair@$$CBIPAUcpp_object@@@std@@@2@@std@@@std@@@2@@std@@YAXPAV?$_List_iterator@V?$_List_val@U?$pair@$$CBIPAUcpp_object@@@std@@V?$allocator@U?$pair@$$CBIPAUcpp_object@@@std@@@2@@std@@@0@IPBV10@AAV?$allocator@V?$_List_iterator@V?$_List_val@U?$pair@$$CBIPAUcpp_object@@@std@@V?$allocator@U?$pair@$$CBIPAUcpp_object@@@std@@@2@@std@@@std@@@0@@Z ; std::_Uninitialized_fill_n<std::_List_iterator<std::_List_val<std::pair<unsigned int const ,cpp_object *>,std::allocator<std::pair<unsigned int const ,cpp_object *> > > > *,unsigned int,std::_List_iterator<std::_List_val<std::pair<unsigned int const ,cpp_object *>,std::allocator<std::pair<unsigned int const ,cpp_object *> > > >,std::allocator<std::_List_iterator<std::_List_val<std::pair<unsigned int const ,cpp_object *>,std::allocator<std::pair<unsigned int const ,cpp_object *> > > > > >
PUBLIC	?_Ufill@?$vector@V?$_List_iterator@V?$_List_val@U?$pair@$$CBIPAUcpp_object@@@std@@V?$allocator@U?$pair@$$CBIPAUcpp_object@@@std@@@2@@std@@@std@@V?$allocator@V?$_List_iterator@V?$_List_val@U?$pair@$$CBIPAUcpp_object@@@std@@V?$allocator@U?$pair@$$CBIPAUcpp_object@@@std@@@2@@std@@@std@@@2@@std@@IAEPAV?$_List_iterator@V?$_List_val@U?$pair@$$CBIPAUcpp_object@@@std@@V?$allocator@U?$pair@$$CBIPAUcpp_object@@@std@@@2@@std@@@2@PAV32@IPBV32@@Z ; std::vector<std::_List_iterator<std::_List_val<std::pair<unsigned int const ,cpp_object *>,std::allocator<std::pair<unsigned int const ,cpp_object *> > > >,std::allocator<std::_List_iterator<std::_List_val<std::pair<unsigned int const ,cpp_object *>,std::allocator<std::pair<unsigned int const ,cpp_object *> > > > > >::_Ufill
PUBLIC	?_Xlen@?$vector@V?$_List_iterator@V?$_List_val@U?$pair@$$CBIPAUcpp_object@@@std@@V?$allocator@U?$pair@$$CBIPAUcpp_object@@@std@@@2@@std@@@std@@V?$allocator@V?$_List_iterator@V?$_List_val@U?$pair@$$CBIPAUcpp_object@@@std@@V?$allocator@U?$pair@$$CBIPAUcpp_object@@@std@@@2@@std@@@std@@@2@@std@@IBEXXZ ; std::vector<std::_List_iterator<std::_List_val<std::pair<unsigned int const ,cpp_object *>,std::allocator<std::pair<unsigned int const ,cpp_object *> > > >,std::allocator<std::_List_iterator<std::_List_val<std::pair<unsigned int const ,cpp_object *>,std::allocator<std::pair<unsigned int const ,cpp_object *> > > > > >::_Xlen
PUBLIC	?_Orphan_range@?$vector@V?$_List_iterator@V?$_List_val@U?$pair@$$CBIPAUcpp_object@@@std@@V?$allocator@U?$pair@$$CBIPAUcpp_object@@@std@@@2@@std@@@std@@V?$allocator@V?$_List_iterator@V?$_List_val@U?$pair@$$CBIPAUcpp_object@@@std@@V?$allocator@U?$pair@$$CBIPAUcpp_object@@@std@@@2@@std@@@std@@@2@@std@@IBEXPAV?$_List_iterator@V?$_List_val@U?$pair@$$CBIPAUcpp_object@@@std@@V?$allocator@U?$pair@$$CBIPAUcpp_object@@@std@@@2@@std@@@2@0@Z ; std::vector<std::_List_iterator<std::_List_val<std::pair<unsigned int const ,cpp_object *>,std::allocator<std::pair<unsigned int const ,cpp_object *> > > >,std::allocator<std::_List_iterator<std::_List_val<std::pair<unsigned int const ,cpp_object *>,std::allocator<std::pair<unsigned int const ,cpp_object *> > > > > >::_Orphan_range
PUBLIC	??$addressof@$$CBV?$_List_iterator@V?$_List_val@U?$pair@$$CBIPAUcpp_object@@@std@@V?$allocator@U?$pair@$$CBIPAUcpp_object@@@std@@@2@@std@@@std@@@std@@YAPBV?$_List_iterator@V?$_List_val@U?$pair@$$CBIPAUcpp_object@@@std@@V?$allocator@U?$pair@$$CBIPAUcpp_object@@@std@@@2@@std@@@0@ABV10@@Z ; std::addressof<std::_List_iterator<std::_List_val<std::pair<unsigned int const ,cpp_object *>,std::allocator<std::pair<unsigned int const ,cpp_object *> > > > const >
PUBLIC	??$_Val_type@PAV?$_List_iterator@V?$_List_val@U?$pair@$$CBIPAUcpp_object@@@std@@V?$allocator@U?$pair@$$CBIPAUcpp_object@@@std@@@2@@std@@@std@@@std@@YAPAV?$_List_iterator@V?$_List_val@U?$pair@$$CBIPAUcpp_object@@@std@@V?$allocator@U?$pair@$$CBIPAUcpp_object@@@std@@@2@@std@@@0@PAV10@@Z ; std::_Val_type<std::_List_iterator<std::_List_val<std::pair<unsigned int const ,cpp_object *>,std::allocator<std::pair<unsigned int const ,cpp_object *> > > > *>
PUBLIC	?construct@?$allocator@V?$_List_iterator@V?$_List_val@U?$pair@$$CBIPAUcpp_object@@@std@@V?$allocator@U?$pair@$$CBIPAUcpp_object@@@std@@@2@@std@@@std@@@std@@QAEXPAV?$_List_iterator@V?$_List_val@U?$pair@$$CBIPAUcpp_object@@@std@@V?$allocator@U?$pair@$$CBIPAUcpp_object@@@std@@@2@@std@@@2@$$QAV32@@Z ; std::allocator<std::_List_iterator<std::_List_val<std::pair<unsigned int const ,cpp_object *>,std::allocator<std::pair<unsigned int const ,cpp_object *> > > > >::construct
PUBLIC	??$forward@V?$_List_iterator@V?$_List_val@U?$pair@$$CBIPAUcpp_object@@@std@@V?$allocator@U?$pair@$$CBIPAUcpp_object@@@std@@@2@@std@@@std@@@std@@YA$$QAV?$_List_iterator@V?$_List_val@U?$pair@$$CBIPAUcpp_object@@@std@@V?$allocator@U?$pair@$$CBIPAUcpp_object@@@std@@@2@@std@@@0@AAV10@@Z ; std::forward<std::_List_iterator<std::_List_val<std::pair<unsigned int const ,cpp_object *>,std::allocator<std::pair<unsigned int const ,cpp_object *> > > > >
PUBLIC	??$_Cons_val@V?$allocator@V?$_List_iterator@V?$_List_val@U?$pair@$$CBIPAUcpp_object@@@std@@V?$allocator@U?$pair@$$CBIPAUcpp_object@@@std@@@2@@std@@@std@@@std@@V?$_List_iterator@V?$_List_val@U?$pair@$$CBIPAUcpp_object@@@std@@V?$allocator@U?$pair@$$CBIPAUcpp_object@@@std@@@2@@std@@@2@V32@@std@@YAXAAV?$allocator@V?$_List_iterator@V?$_List_val@U?$pair@$$CBIPAUcpp_object@@@std@@V?$allocator@U?$pair@$$CBIPAUcpp_object@@@std@@@2@@std@@@std@@@0@PAV?$_List_iterator@V?$_List_val@U?$pair@$$CBIPAUcpp_object@@@std@@V?$allocator@U?$pair@$$CBIPAUcpp_object@@@std@@@2@@std@@@0@$$QAV20@@Z ; std::_Cons_val<std::allocator<std::_List_iterator<std::_List_val<std::pair<unsigned int const ,cpp_object *>,std::allocator<std::pair<unsigned int const ,cpp_object *> > > > >,std::_List_iterator<std::_List_val<std::pair<unsigned int const ,cpp_object *>,std::allocator<std::pair<unsigned int const ,cpp_object *> > > >,std::_List_iterator<std::_List_val<std::pair<unsigned int const ,cpp_object *>,std::allocator<std::pair<unsigned int const ,cpp_object *> > > > >
PUBLIC	??$_Uninit_move@PAV?$_List_iterator@V?$_List_val@U?$pair@$$CBIPAUcpp_object@@@std@@V?$allocator@U?$pair@$$CBIPAUcpp_object@@@std@@@2@@std@@@std@@PAV12@V?$allocator@V?$_List_iterator@V?$_List_val@U?$pair@$$CBIPAUcpp_object@@@std@@V?$allocator@U?$pair@$$CBIPAUcpp_object@@@std@@@2@@std@@@std@@@2@V12@@std@@YAPAV?$_List_iterator@V?$_List_val@U?$pair@$$CBIPAUcpp_object@@@std@@V?$allocator@U?$pair@$$CBIPAUcpp_object@@@std@@@2@@std@@@0@PAV10@00AAV?$allocator@V?$_List_iterator@V?$_List_val@U?$pair@$$CBIPAUcpp_object@@@std@@V?$allocator@U?$pair@$$CBIPAUcpp_object@@@std@@@2@@std@@@std@@@0@0U_Nonscalar_ptr_iterator_tag@0@@Z ; std::_Uninit_move<std::_List_iterator<std::_List_val<std::pair<unsigned int const ,cpp_object *>,std::allocator<std::pair<unsigned int const ,cpp_object *> > > > *,std::_List_iterator<std::_List_val<std::pair<unsigned int const ,cpp_object *>,std::allocator<std::pair<unsigned int const ,cpp_object *> > > > *,std::allocator<std::_List_iterator<std::_List_val<std::pair<unsigned int const ,cpp_object *>,std::allocator<std::pair<unsigned int const ,cpp_object *> > > > >,std::_List_iterator<std::_List_val<std::pair<unsigned int const ,cpp_object *>,std::allocator<std::pair<unsigned int const ,cpp_object *> > > > >
PUBLIC	??$_Uninitialized_move@PAV?$_List_iterator@V?$_List_val@U?$pair@$$CBIPAUcpp_object@@@std@@V?$allocator@U?$pair@$$CBIPAUcpp_object@@@std@@@2@@std@@@std@@PAV12@V?$allocator@V?$_List_iterator@V?$_List_val@U?$pair@$$CBIPAUcpp_object@@@std@@V?$allocator@U?$pair@$$CBIPAUcpp_object@@@std@@@2@@std@@@std@@@2@@std@@YAPAV?$_List_iterator@V?$_List_val@U?$pair@$$CBIPAUcpp_object@@@std@@V?$allocator@U?$pair@$$CBIPAUcpp_object@@@std@@@2@@std@@@0@PAV10@00AAV?$allocator@V?$_List_iterator@V?$_List_val@U?$pair@$$CBIPAUcpp_object@@@std@@V?$allocator@U?$pair@$$CBIPAUcpp_object@@@std@@@2@@std@@@std@@@0@@Z ; std::_Uninitialized_move<std::_List_iterator<std::_List_val<std::pair<unsigned int const ,cpp_object *>,std::allocator<std::pair<unsigned int const ,cpp_object *> > > > *,std::_List_iterator<std::_List_val<std::pair<unsigned int const ,cpp_object *>,std::allocator<std::pair<unsigned int const ,cpp_object *> > > > *,std::allocator<std::_List_iterator<std::_List_val<std::pair<unsigned int const ,cpp_object *>,std::allocator<std::pair<unsigned int const ,cpp_object *> > > > > >
PUBLIC	??$_Umove@PAV?$_List_iterator@V?$_List_val@U?$pair@$$CBIPAUcpp_object@@@std@@V?$allocator@U?$pair@$$CBIPAUcpp_object@@@std@@@2@@std@@@std@@@?$vector@V?$_List_iterator@V?$_List_val@U?$pair@$$CBIPAUcpp_object@@@std@@V?$allocator@U?$pair@$$CBIPAUcpp_object@@@std@@@2@@std@@@std@@V?$allocator@V?$_List_iterator@V?$_List_val@U?$pair@$$CBIPAUcpp_object@@@std@@V?$allocator@U?$pair@$$CBIPAUcpp_object@@@std@@@2@@std@@@std@@@2@@std@@IAEPAV?$_List_iterator@V?$_List_val@U?$pair@$$CBIPAUcpp_object@@@std@@V?$allocator@U?$pair@$$CBIPAUcpp_object@@@std@@@2@@std@@@1@PAV21@00@Z ; std::vector<std::_List_iterator<std::_List_val<std::pair<unsigned int const ,cpp_object *>,std::allocator<std::pair<unsigned int const ,cpp_object *> > > >,std::allocator<std::_List_iterator<std::_List_val<std::pair<unsigned int const ,cpp_object *>,std::allocator<std::pair<unsigned int const ,cpp_object *> > > > > >::_Umove<std::_List_iterator<std::_List_val<std::pair<unsigned int const ,cpp_object *>,std::allocator<std::pair<unsigned int const ,cpp_object *> > > > *>
PUBLIC	??$addressof@V?$_List_iterator@V?$_List_val@U?$pair@$$CBIPAUcpp_object@@@std@@V?$allocator@U?$pair@$$CBIPAUcpp_object@@@std@@@2@@std@@@std@@@std@@YAPAV?$_List_iterator@V?$_List_val@U?$pair@$$CBIPAUcpp_object@@@std@@V?$allocator@U?$pair@$$CBIPAUcpp_object@@@std@@@2@@std@@@0@AAV10@@Z ; std::addressof<std::_List_iterator<std::_List_val<std::pair<unsigned int const ,cpp_object *>,std::allocator<std::pair<unsigned int const ,cpp_object *> > > > >
PUBLIC	??$_Unchecked@PAV?$_List_iterator@V?$_List_val@U?$pair@$$CBIPAUcpp_object@@@std@@V?$allocator@U?$pair@$$CBIPAUcpp_object@@@std@@@2@@std@@@std@@@std@@YAPAV?$_List_iterator@V?$_List_val@U?$pair@$$CBIPAUcpp_object@@@std@@V?$allocator@U?$pair@$$CBIPAUcpp_object@@@std@@@2@@std@@@0@PAV10@@Z ; std::_Unchecked<std::_List_iterator<std::_List_val<std::pair<unsigned int const ,cpp_object *>,std::allocator<std::pair<unsigned int const ,cpp_object *> > > > *>
PUBLIC	??$_Fill@PAV?$_List_iterator@V?$_List_val@U?$pair@$$CBIPAUcpp_object@@@std@@V?$allocator@U?$pair@$$CBIPAUcpp_object@@@std@@@2@@std@@@std@@V12@@std@@YAXPAV?$_List_iterator@V?$_List_val@U?$pair@$$CBIPAUcpp_object@@@std@@V?$allocator@U?$pair@$$CBIPAUcpp_object@@@std@@@2@@std@@@0@0ABV10@@Z ; std::_Fill<std::_List_iterator<std::_List_val<std::pair<unsigned int const ,cpp_object *>,std::allocator<std::pair<unsigned int const ,cpp_object *> > > > *,std::_List_iterator<std::_List_val<std::pair<unsigned int const ,cpp_object *>,std::allocator<std::pair<unsigned int const ,cpp_object *> > > > >
PUBLIC	??$fill@PAV?$_List_iterator@V?$_List_val@U?$pair@$$CBIPAUcpp_object@@@std@@V?$allocator@U?$pair@$$CBIPAUcpp_object@@@std@@@2@@std@@@std@@V12@@std@@YAXPAV?$_List_iterator@V?$_List_val@U?$pair@$$CBIPAUcpp_object@@@std@@V?$allocator@U?$pair@$$CBIPAUcpp_object@@@std@@@2@@std@@@0@0ABV10@@Z ; std::fill<std::_List_iterator<std::_List_val<std::pair<unsigned int const ,cpp_object *>,std::allocator<std::pair<unsigned int const ,cpp_object *> > > > *,std::_List_iterator<std::_List_val<std::pair<unsigned int const ,cpp_object *>,std::allocator<std::pair<unsigned int const ,cpp_object *> > > > >
PUBLIC	??$_Copy_backward@PAV?$_List_iterator@V?$_List_val@U?$pair@$$CBIPAUcpp_object@@@std@@V?$allocator@U?$pair@$$CBIPAUcpp_object@@@std@@@2@@std@@@std@@PAV12@@std@@YAPAV?$_List_iterator@V?$_List_val@U?$pair@$$CBIPAUcpp_object@@@std@@V?$allocator@U?$pair@$$CBIPAUcpp_object@@@std@@@2@@std@@@0@PAV10@00U_Nonscalar_ptr_iterator_tag@0@@Z ; std::_Copy_backward<std::_List_iterator<std::_List_val<std::pair<unsigned int const ,cpp_object *>,std::allocator<std::pair<unsigned int const ,cpp_object *> > > > *,std::_List_iterator<std::_List_val<std::pair<unsigned int const ,cpp_object *>,std::allocator<std::pair<unsigned int const ,cpp_object *> > > > *>
PUBLIC	??$_Copy_backward@PAV?$_List_iterator@V?$_List_val@U?$pair@$$CBIPAUcpp_object@@@std@@V?$allocator@U?$pair@$$CBIPAUcpp_object@@@std@@@2@@std@@@std@@PAV12@@std@@YAPAV?$_List_iterator@V?$_List_val@U?$pair@$$CBIPAUcpp_object@@@std@@V?$allocator@U?$pair@$$CBIPAUcpp_object@@@std@@@2@@std@@@0@PAV10@00@Z ; std::_Copy_backward<std::_List_iterator<std::_List_val<std::pair<unsigned int const ,cpp_object *>,std::allocator<std::pair<unsigned int const ,cpp_object *> > > > *,std::_List_iterator<std::_List_val<std::pair<unsigned int const ,cpp_object *>,std::allocator<std::pair<unsigned int const ,cpp_object *> > > > *>
PUBLIC	?_Insert_n@?$vector@V?$_List_iterator@V?$_List_val@U?$pair@$$CBIPAUcpp_object@@@std@@V?$allocator@U?$pair@$$CBIPAUcpp_object@@@std@@@2@@std@@@std@@V?$allocator@V?$_List_iterator@V?$_List_val@U?$pair@$$CBIPAUcpp_object@@@std@@V?$allocator@U?$pair@$$CBIPAUcpp_object@@@std@@@2@@std@@@std@@@2@@std@@IAEXV?$_Vector_const_iterator@V?$_Vector_val@V?$_List_iterator@V?$_List_val@U?$pair@$$CBIPAUcpp_object@@@std@@V?$allocator@U?$pair@$$CBIPAUcpp_object@@@std@@@2@@std@@@std@@V?$allocator@V?$_List_iterator@V?$_List_val@U?$pair@$$CBIPAUcpp_object@@@std@@V?$allocator@U?$pair@$$CBIPAUcpp_object@@@std@@@2@@std@@@std@@@2@@std@@@2@IABV?$_List_iterator@V?$_List_val@U?$pair@$$CBIPAUcpp_object@@@std@@V?$allocator@U?$pair@$$CBIPAUcpp_object@@@std@@@2@@std@@@2@@Z ; std::vector<std::_List_iterator<std::_List_val<std::pair<unsigned int const ,cpp_object *>,std::allocator<std::pair<unsigned int const ,cpp_object *> > > >,std::allocator<std::_List_iterator<std::_List_val<std::pair<unsigned int const ,cpp_object *>,std::allocator<std::pair<unsigned int const ,cpp_object *> > > > > >::_Insert_n
PUBLIC	?insert@?$vector@V?$_List_iterator@V?$_List_val@U?$pair@$$CBIPAUcpp_object@@@std@@V?$allocator@U?$pair@$$CBIPAUcpp_object@@@std@@@2@@std@@@std@@V?$allocator@V?$_List_iterator@V?$_List_val@U?$pair@$$CBIPAUcpp_object@@@std@@V?$allocator@U?$pair@$$CBIPAUcpp_object@@@std@@@2@@std@@@std@@@2@@std@@QAEXV?$_Vector_const_iterator@V?$_Vector_val@V?$_List_iterator@V?$_List_val@U?$pair@$$CBIPAUcpp_object@@@std@@V?$allocator@U?$pair@$$CBIPAUcpp_object@@@std@@@2@@std@@@std@@V?$allocator@V?$_List_iterator@V?$_List_val@U?$pair@$$CBIPAUcpp_object@@@std@@V?$allocator@U?$pair@$$CBIPAUcpp_object@@@std@@@2@@std@@@std@@@2@@std@@@2@IABV?$_List_iterator@V?$_List_val@U?$pair@$$CBIPAUcpp_object@@@std@@V?$allocator@U?$pair@$$CBIPAUcpp_object@@@std@@@2@@std@@@2@@Z ; std::vector<std::_List_iterator<std::_List_val<std::pair<unsigned int const ,cpp_object *>,std::allocator<std::pair<unsigned int const ,cpp_object *> > > >,std::allocator<std::_List_iterator<std::_List_val<std::pair<unsigned int const ,cpp_object *>,std::allocator<std::pair<unsigned int const ,cpp_object *> > > > > >::insert
PUBLIC	??0?$_Vector_const_iterator@V?$_Vector_val@V?$_List_iterator@V?$_List_val@U?$pair@$$CBIPAUcpp_object@@@std@@V?$allocator@U?$pair@$$CBIPAUcpp_object@@@std@@@2@@std@@@std@@V?$allocator@V?$_List_iterator@V?$_List_val@U?$pair@$$CBIPAUcpp_object@@@std@@V?$allocator@U?$pair@$$CBIPAUcpp_object@@@std@@@2@@std@@@std@@@2@@std@@@std@@QAE@PAV?$_List_iterator@V?$_List_val@U?$pair@$$CBIPAUcpp_object@@@std@@V?$allocator@U?$pair@$$CBIPAUcpp_object@@@std@@@2@@std@@@1@PBU_Container_base0@1@@Z ; std::_Vector_const_iterator<std::_Vector_val<std::_List_iterator<std::_List_val<std::pair<unsigned int const ,cpp_object *>,std::allocator<std::pair<unsigned int const ,cpp_object *> > > >,std::allocator<std::_List_iterator<std::_List_val<std::pair<unsigned int const ,cpp_object *>,std::allocator<std::pair<unsigned int const ,cpp_object *> > > > > > >::_Vector_const_iterator<std::_Vector_val<std::_List_iterator<std::_List_val<std::pair<unsigned int const ,cpp_object *>,std::allocator<std::pair<unsigned int const ,cpp_object *> > > >,std::allocator<std::_List_iterator<std::_List_val<std::pair<unsigned int const ,cpp_object *>,std::allocator<std::pair<unsigned int const ,cpp_object *> > > > > > >
PUBLIC	??0?$_Vector_iterator@V?$_Vector_val@V?$_List_iterator@V?$_List_val@U?$pair@$$CBIPAUcpp_object@@@std@@V?$allocator@U?$pair@$$CBIPAUcpp_object@@@std@@@2@@std@@@std@@V?$allocator@V?$_List_iterator@V?$_List_val@U?$pair@$$CBIPAUcpp_object@@@std@@V?$allocator@U?$pair@$$CBIPAUcpp_object@@@std@@@2@@std@@@std@@@2@@std@@@std@@QAE@PAV?$_List_iterator@V?$_List_val@U?$pair@$$CBIPAUcpp_object@@@std@@V?$allocator@U?$pair@$$CBIPAUcpp_object@@@std@@@2@@std@@@1@PBU_Container_base0@1@@Z ; std::_Vector_iterator<std::_Vector_val<std::_List_iterator<std::_List_val<std::pair<unsigned int const ,cpp_object *>,std::allocator<std::pair<unsigned int const ,cpp_object *> > > >,std::allocator<std::_List_iterator<std::_List_val<std::pair<unsigned int const ,cpp_object *>,std::allocator<std::pair<unsigned int const ,cpp_object *> > > > > > >::_Vector_iterator<std::_Vector_val<std::_List_iterator<std::_List_val<std::pair<unsigned int const ,cpp_object *>,std::allocator<std::pair<unsigned int const ,cpp_object *> > > >,std::allocator<std::_List_iterator<std::_List_val<std::pair<unsigned int const ,cpp_object *>,std::allocator<std::pair<unsigned int const ,cpp_object *> > > > > > >
PUBLIC	?_Make_iter@?$vector@V?$_List_iterator@V?$_List_val@U?$pair@$$CBIPAUcpp_object@@@std@@V?$allocator@U?$pair@$$CBIPAUcpp_object@@@std@@@2@@std@@@std@@V?$allocator@V?$_List_iterator@V?$_List_val@U?$pair@$$CBIPAUcpp_object@@@std@@V?$allocator@U?$pair@$$CBIPAUcpp_object@@@std@@@2@@std@@@std@@@2@@std@@QBE?AV?$_Vector_iterator@V?$_Vector_val@V?$_List_iterator@V?$_List_val@U?$pair@$$CBIPAUcpp_object@@@std@@V?$allocator@U?$pair@$$CBIPAUcpp_object@@@std@@@2@@std@@@std@@V?$allocator@V?$_List_iterator@V?$_List_val@U?$pair@$$CBIPAUcpp_object@@@std@@V?$allocator@U?$pair@$$CBIPAUcpp_object@@@std@@@2@@std@@@std@@@2@@std@@@2@V?$_Vector_const_iterator@V?$_Vector_val@V?$_List_iterator@V?$_List_val@U?$pair@$$CBIPAUcpp_object@@@std@@V?$allocator@U?$pair@$$CBIPAUcpp_object@@@std@@@2@@std@@@std@@V?$allocator@V?$_List_iterator@V?$_List_val@U?$pair@$$CBIPAUcpp_object@@@std@@V?$allocator@U?$pair@$$CBIPAUcpp_object@@@std@@@2@@std@@@std@@@2@@std@@@2@@Z ; std::vector<std::_List_iterator<std::_List_val<std::pair<unsigned int const ,cpp_object *>,std::allocator<std::pair<unsigned int const ,cpp_object *> > > >,std::allocator<std::_List_iterator<std::_List_val<std::pair<unsigned int const ,cpp_object *>,std::allocator<std::pair<unsigned int const ,cpp_object *> > > > > >::_Make_iter
PUBLIC	??$_Destroy@V?$_List_iterator@V?$_List_val@U?$pair@$$CBIPAUcpp_object@@@std@@V?$allocator@U?$pair@$$CBIPAUcpp_object@@@std@@@2@@std@@@std@@@std@@YAXPAV?$_List_iterator@V?$_List_val@U?$pair@$$CBIPAUcpp_object@@@std@@V?$allocator@U?$pair@$$CBIPAUcpp_object@@@std@@@2@@std@@@0@@Z ; std::_Destroy<std::_List_iterator<std::_List_val<std::pair<unsigned int const ,cpp_object *>,std::allocator<std::pair<unsigned int const ,cpp_object *> > > > >
PUBLIC	?destroy@?$allocator@V?$_List_iterator@V?$_List_val@U?$pair@$$CBIPAUcpp_object@@@std@@V?$allocator@U?$pair@$$CBIPAUcpp_object@@@std@@@2@@std@@@std@@@std@@QAEXPAV?$_List_iterator@V?$_List_val@U?$pair@$$CBIPAUcpp_object@@@std@@V?$allocator@U?$pair@$$CBIPAUcpp_object@@@std@@@2@@std@@@2@@Z ; std::allocator<std::_List_iterator<std::_List_val<std::pair<unsigned int const ,cpp_object *>,std::allocator<std::pair<unsigned int const ,cpp_object *> > > > >::destroy
PUBLIC	??$_Dest_val@V?$allocator@V?$_List_iterator@V?$_List_val@U?$pair@$$CBIPAUcpp_object@@@std@@V?$allocator@U?$pair@$$CBIPAUcpp_object@@@std@@@2@@std@@@std@@@std@@V?$_List_iterator@V?$_List_val@U?$pair@$$CBIPAUcpp_object@@@std@@V?$allocator@U?$pair@$$CBIPAUcpp_object@@@std@@@2@@std@@@2@@std@@YAXAAV?$allocator@V?$_List_iterator@V?$_List_val@U?$pair@$$CBIPAUcpp_object@@@std@@V?$allocator@U?$pair@$$CBIPAUcpp_object@@@std@@@2@@std@@@std@@@0@PAV?$_List_iterator@V?$_List_val@U?$pair@$$CBIPAUcpp_object@@@std@@V?$allocator@U?$pair@$$CBIPAUcpp_object@@@std@@@2@@std@@@0@@Z ; std::_Dest_val<std::allocator<std::_List_iterator<std::_List_val<std::pair<unsigned int const ,cpp_object *>,std::allocator<std::pair<unsigned int const ,cpp_object *> > > > >,std::_List_iterator<std::_List_val<std::pair<unsigned int const ,cpp_object *>,std::allocator<std::pair<unsigned int const ,cpp_object *> > > > >
PUBLIC	??$_Destroy_range@V?$allocator@V?$_List_iterator@V?$_List_val@U?$pair@$$CBIPAUcpp_object@@@std@@V?$allocator@U?$pair@$$CBIPAUcpp_object@@@std@@@2@@std@@@std@@@std@@@std@@YAXPAV?$_List_iterator@V?$_List_val@U?$pair@$$CBIPAUcpp_object@@@std@@V?$allocator@U?$pair@$$CBIPAUcpp_object@@@std@@@2@@std@@@0@0AAV?$allocator@V?$_List_iterator@V?$_List_val@U?$pair@$$CBIPAUcpp_object@@@std@@V?$allocator@U?$pair@$$CBIPAUcpp_object@@@std@@@2@@std@@@std@@@0@U_Nonscalar_ptr_iterator_tag@0@@Z ; std::_Destroy_range<std::allocator<std::_List_iterator<std::_List_val<std::pair<unsigned int const ,cpp_object *>,std::allocator<std::pair<unsigned int const ,cpp_object *> > > > > >
PUBLIC	??$_Destroy_range@V?$allocator@V?$_List_iterator@V?$_List_val@U?$pair@$$CBIPAUcpp_object@@@std@@V?$allocator@U?$pair@$$CBIPAUcpp_object@@@std@@@2@@std@@@std@@@std@@@std@@YAXPAV?$_List_iterator@V?$_List_val@U?$pair@$$CBIPAUcpp_object@@@std@@V?$allocator@U?$pair@$$CBIPAUcpp_object@@@std@@@2@@std@@@0@0AAV?$allocator@V?$_List_iterator@V?$_List_val@U?$pair@$$CBIPAUcpp_object@@@std@@V?$allocator@U?$pair@$$CBIPAUcpp_object@@@std@@@2@@std@@@std@@@0@@Z ; std::_Destroy_range<std::allocator<std::_List_iterator<std::_List_val<std::pair<unsigned int const ,cpp_object *>,std::allocator<std::pair<unsigned int const ,cpp_object *> > > > > >
PUBLIC	?_Destroy@?$vector@V?$_List_iterator@V?$_List_val@U?$pair@$$CBIPAUcpp_object@@@std@@V?$allocator@U?$pair@$$CBIPAUcpp_object@@@std@@@2@@std@@@std@@V?$allocator@V?$_List_iterator@V?$_List_val@U?$pair@$$CBIPAUcpp_object@@@std@@V?$allocator@U?$pair@$$CBIPAUcpp_object@@@std@@@2@@std@@@std@@@2@@std@@IAEXPAV?$_List_iterator@V?$_List_val@U?$pair@$$CBIPAUcpp_object@@@std@@V?$allocator@U?$pair@$$CBIPAUcpp_object@@@std@@@2@@std@@@2@0@Z ; std::vector<std::_List_iterator<std::_List_val<std::pair<unsigned int const ,cpp_object *>,std::allocator<std::pair<unsigned int const ,cpp_object *> > > >,std::allocator<std::_List_iterator<std::_List_val<std::pair<unsigned int const ,cpp_object *>,std::allocator<std::pair<unsigned int const ,cpp_object *> > > > > >::_Destroy
PUBLIC	?_Compat@?$_Vector_const_iterator@V?$_Vector_val@V?$_List_iterator@V?$_List_val@U?$pair@$$CBIPAUcpp_object@@@std@@V?$allocator@U?$pair@$$CBIPAUcpp_object@@@std@@@2@@std@@@std@@V?$allocator@V?$_List_iterator@V?$_List_val@U?$pair@$$CBIPAUcpp_object@@@std@@V?$allocator@U?$pair@$$CBIPAUcpp_object@@@std@@@2@@std@@@std@@@2@@std@@@std@@QBEXABV12@@Z ; std::_Vector_const_iterator<std::_Vector_val<std::_List_iterator<std::_List_val<std::pair<unsigned int const ,cpp_object *>,std::allocator<std::pair<unsigned int const ,cpp_object *> > > >,std::allocator<std::_List_iterator<std::_List_val<std::pair<unsigned int const ,cpp_object *>,std::allocator<std::pair<unsigned int const ,cpp_object *> > > > > > >::_Compat
PUBLIC	??8?$_Vector_const_iterator@V?$_Vector_val@V?$_List_iterator@V?$_List_val@U?$pair@$$CBIPAUcpp_object@@@std@@V?$allocator@U?$pair@$$CBIPAUcpp_object@@@std@@@2@@std@@@std@@V?$allocator@V?$_List_iterator@V?$_List_val@U?$pair@$$CBIPAUcpp_object@@@std@@V?$allocator@U?$pair@$$CBIPAUcpp_object@@@std@@@2@@std@@@std@@@2@@std@@@std@@QBE_NABV01@@Z ; std::_Vector_const_iterator<std::_Vector_val<std::_List_iterator<std::_List_val<std::pair<unsigned int const ,cpp_object *>,std::allocator<std::pair<unsigned int const ,cpp_object *> > > >,std::allocator<std::_List_iterator<std::_List_val<std::pair<unsigned int const ,cpp_object *>,std::allocator<std::pair<unsigned int const ,cpp_object *> > > > > > >::operator==
PUBLIC	??9?$_Vector_const_iterator@V?$_Vector_val@V?$_List_iterator@V?$_List_val@U?$pair@$$CBIPAUcpp_object@@@std@@V?$allocator@U?$pair@$$CBIPAUcpp_object@@@std@@@2@@std@@@std@@V?$allocator@V?$_List_iterator@V?$_List_val@U?$pair@$$CBIPAUcpp_object@@@std@@V?$allocator@U?$pair@$$CBIPAUcpp_object@@@std@@@2@@std@@@std@@@2@@std@@@std@@QBE_NABV01@@Z ; std::_Vector_const_iterator<std::_Vector_val<std::_List_iterator<std::_List_val<std::pair<unsigned int const ,cpp_object *>,std::allocator<std::pair<unsigned int const ,cpp_object *> > > >,std::allocator<std::_List_iterator<std::_List_val<std::pair<unsigned int const ,cpp_object *>,std::allocator<std::pair<unsigned int const ,cpp_object *> > > > > > >::operator!=
PUBLIC	??$_Ptr_cat@V?$_List_iterator@V?$_List_val@U?$pair@$$CBIPAUcpp_object@@@std@@V?$allocator@U?$pair@$$CBIPAUcpp_object@@@std@@@2@@std@@@std@@V12@@std@@YA?AU_Nonscalar_ptr_iterator_tag@0@PAV?$_List_iterator@V?$_List_val@U?$pair@$$CBIPAUcpp_object@@@std@@V?$allocator@U?$pair@$$CBIPAUcpp_object@@@std@@@2@@std@@@0@0@Z ; std::_Ptr_cat<std::_List_iterator<std::_List_val<std::pair<unsigned int const ,cpp_object *>,std::allocator<std::pair<unsigned int const ,cpp_object *> > > >,std::_List_iterator<std::_List_val<std::pair<unsigned int const ,cpp_object *>,std::allocator<std::pair<unsigned int const ,cpp_object *> > > > >
PUBLIC	??$move@AAV?$_List_iterator@V?$_List_val@U?$pair@$$CBIPAUcpp_object@@@std@@V?$allocator@U?$pair@$$CBIPAUcpp_object@@@std@@@2@@std@@@std@@@std@@YA$$QAV?$_List_iterator@V?$_List_val@U?$pair@$$CBIPAUcpp_object@@@std@@V?$allocator@U?$pair@$$CBIPAUcpp_object@@@std@@@2@@std@@@0@AAV10@@Z ; std::move<std::_List_iterator<std::_List_val<std::pair<unsigned int const ,cpp_object *>,std::allocator<std::pair<unsigned int const ,cpp_object *> > > > &>
PUBLIC	??$_Move@PAV?$_List_iterator@V?$_List_val@U?$pair@$$CBIPAUcpp_object@@@std@@V?$allocator@U?$pair@$$CBIPAUcpp_object@@@std@@@2@@std@@@std@@PAV12@@std@@YAPAV?$_List_iterator@V?$_List_val@U?$pair@$$CBIPAUcpp_object@@@std@@V?$allocator@U?$pair@$$CBIPAUcpp_object@@@std@@@2@@std@@@0@PAV10@00U_Nonscalar_ptr_iterator_tag@0@@Z ; std::_Move<std::_List_iterator<std::_List_val<std::pair<unsigned int const ,cpp_object *>,std::allocator<std::pair<unsigned int const ,cpp_object *> > > > *,std::_List_iterator<std::_List_val<std::pair<unsigned int const ,cpp_object *>,std::allocator<std::pair<unsigned int const ,cpp_object *> > > > *>
PUBLIC	??$_Move@PAV?$_List_iterator@V?$_List_val@U?$pair@$$CBIPAUcpp_object@@@std@@V?$allocator@U?$pair@$$CBIPAUcpp_object@@@std@@@2@@std@@@std@@PAV12@@std@@YAPAV?$_List_iterator@V?$_List_val@U?$pair@$$CBIPAUcpp_object@@@std@@V?$allocator@U?$pair@$$CBIPAUcpp_object@@@std@@@2@@std@@@0@PAV10@00@Z ; std::_Move<std::_List_iterator<std::_List_val<std::pair<unsigned int const ,cpp_object *>,std::allocator<std::pair<unsigned int const ,cpp_object *> > > > *,std::_List_iterator<std::_List_val<std::pair<unsigned int const ,cpp_object *>,std::allocator<std::pair<unsigned int const ,cpp_object *> > > > *>
PUBLIC	?erase@?$vector@V?$_List_iterator@V?$_List_val@U?$pair@$$CBIPAUcpp_object@@@std@@V?$allocator@U?$pair@$$CBIPAUcpp_object@@@std@@@2@@std@@@std@@V?$allocator@V?$_List_iterator@V?$_List_val@U?$pair@$$CBIPAUcpp_object@@@std@@V?$allocator@U?$pair@$$CBIPAUcpp_object@@@std@@@2@@std@@@std@@@2@@std@@QAE?AV?$_Vector_iterator@V?$_Vector_val@V?$_List_iterator@V?$_List_val@U?$pair@$$CBIPAUcpp_object@@@std@@V?$allocator@U?$pair@$$CBIPAUcpp_object@@@std@@@2@@std@@@std@@V?$allocator@V?$_List_iterator@V?$_List_val@U?$pair@$$CBIPAUcpp_object@@@std@@V?$allocator@U?$pair@$$CBIPAUcpp_object@@@std@@@2@@std@@@std@@@2@@std@@@2@V?$_Vector_const_iterator@V?$_Vector_val@V?$_List_iterator@V?$_List_val@U?$pair@$$CBIPAUcpp_object@@@std@@V?$allocator@U?$pair@$$CBIPAUcpp_object@@@std@@@2@@std@@@std@@V?$allocator@V?$_List_iterator@V?$_List_val@U?$pair@$$CBIPAUcpp_object@@@std@@V?$allocator@U?$pair@$$CBIPAUcpp_object@@@std@@@2@@std@@@std@@@2@@std@@@2@0@Z ; std::vector<std::_List_iterator<std::_List_val<std::pair<unsigned int const ,cpp_object *>,std::allocator<std::pair<unsigned int const ,cpp_object *> > > >,std::allocator<std::_List_iterator<std::_List_val<std::pair<unsigned int const ,cpp_object *>,std::allocator<std::pair<unsigned int const ,cpp_object *> > > > > >::erase
PUBLIC	?_Assign_n@?$vector@V?$_List_iterator@V?$_List_val@U?$pair@$$CBIPAUcpp_object@@@std@@V?$allocator@U?$pair@$$CBIPAUcpp_object@@@std@@@2@@std@@@std@@V?$allocator@V?$_List_iterator@V?$_List_val@U?$pair@$$CBIPAUcpp_object@@@std@@V?$allocator@U?$pair@$$CBIPAUcpp_object@@@std@@@2@@std@@@std@@@2@@std@@IAEXIABV?$_List_iterator@V?$_List_val@U?$pair@$$CBIPAUcpp_object@@@std@@V?$allocator@U?$pair@$$CBIPAUcpp_object@@@std@@@2@@std@@@2@@Z ; std::vector<std::_List_iterator<std::_List_val<std::pair<unsigned int const ,cpp_object *>,std::allocator<std::pair<unsigned int const ,cpp_object *> > > >,std::allocator<std::_List_iterator<std::_List_val<std::pair<unsigned int const ,cpp_object *>,std::allocator<std::pair<unsigned int const ,cpp_object *> > > > > >::_Assign_n
PUBLIC	?assign@?$vector@V?$_List_iterator@V?$_List_val@U?$pair@$$CBIPAUcpp_object@@@std@@V?$allocator@U?$pair@$$CBIPAUcpp_object@@@std@@@2@@std@@@std@@V?$allocator@V?$_List_iterator@V?$_List_val@U?$pair@$$CBIPAUcpp_object@@@std@@V?$allocator@U?$pair@$$CBIPAUcpp_object@@@std@@@2@@std@@@std@@@2@@std@@QAEXIABV?$_List_iterator@V?$_List_val@U?$pair@$$CBIPAUcpp_object@@@std@@V?$allocator@U?$pair@$$CBIPAUcpp_object@@@std@@@2@@std@@@2@@Z ; std::vector<std::_List_iterator<std::_List_val<std::pair<unsigned int const ,cpp_object *>,std::allocator<std::pair<unsigned int const ,cpp_object *> > > >,std::allocator<std::_List_iterator<std::_List_val<std::pair<unsigned int const ,cpp_object *>,std::allocator<std::pair<unsigned int const ,cpp_object *> > > > > >::assign
PUBLIC	?_Init@?$_Hash@V?$_Umap_traits@IPAUcpp_object@@V?$_Hash_compare@IVcpp_tommy_inthash_u32@@U?$equal_to@I@std@@@std@@V?$allocator@U?$pair@$$CBIPAUcpp_object@@@std@@@3@$0A@@tr1@std@@@std@@IAEXI@Z ; std::_Hash<std::tr1::_Umap_traits<unsigned int,cpp_object *,std::_Hash_compare<unsigned int,cpp_tommy_inthash_u32,std::equal_to<unsigned int> >,std::allocator<std::pair<unsigned int const ,cpp_object *> >,0> >::_Init
PUBLIC	?begin@?$_Hash@V?$_Umap_traits@IPAUcpp_object@@V?$_Hash_compare@IVcpp_tommy_inthash_u32@@U?$equal_to@I@std@@@std@@V?$allocator@U?$pair@$$CBIPAUcpp_object@@@std@@@3@$0A@@tr1@std@@@std@@QAE?AV?$_List_iterator@V?$_List_val@U?$pair@$$CBIPAUcpp_object@@@std@@V?$allocator@U?$pair@$$CBIPAUcpp_object@@@std@@@2@@std@@@2@XZ ; std::_Hash<std::tr1::_Umap_traits<unsigned int,cpp_object *,std::_Hash_compare<unsigned int,cpp_tommy_inthash_u32,std::equal_to<unsigned int> >,std::allocator<std::pair<unsigned int const ,cpp_object *> >,0> >::begin
PUBLIC	?_Reinsert@?$_Hash@V?$_Umap_traits@IPAUcpp_object@@V?$_Hash_compare@IVcpp_tommy_inthash_u32@@U?$equal_to@I@std@@@std@@V?$allocator@U?$pair@$$CBIPAUcpp_object@@@std@@@3@$0A@@tr1@std@@@std@@IAEXV?$_List_iterator@V?$_List_val@U?$pair@$$CBIPAUcpp_object@@@std@@V?$allocator@U?$pair@$$CBIPAUcpp_object@@@std@@@2@@std@@@2@@Z ; std::_Hash<std::tr1::_Umap_traits<unsigned int,cpp_object *,std::_Hash_compare<unsigned int,cpp_tommy_inthash_u32,std::equal_to<unsigned int> >,std::allocator<std::pair<unsigned int const ,cpp_object *> >,0> >::_Reinsert
PUBLIC	?max_size@?$allocator@V?$_List_iterator@V?$_List_val@U?$pair@$$CBIPAUcpp_object@@@std@@V?$allocator@U?$pair@$$CBIPAUcpp_object@@@std@@@2@@std@@@std@@@std@@QBEIXZ ; std::allocator<std::_List_iterator<std::_List_val<std::pair<unsigned int const ,cpp_object *>,std::allocator<std::pair<unsigned int const ,cpp_object *> > > > >::max_size
PUBLIC	?max_size@?$vector@V?$_List_iterator@V?$_List_val@U?$pair@$$CBIPAUcpp_object@@@std@@V?$allocator@U?$pair@$$CBIPAUcpp_object@@@std@@@2@@std@@@std@@V?$allocator@V?$_List_iterator@V?$_List_val@U?$pair@$$CBIPAUcpp_object@@@std@@V?$allocator@U?$pair@$$CBIPAUcpp_object@@@std@@@2@@std@@@std@@@2@@std@@QBEIXZ ; std::vector<std::_List_iterator<std::_List_val<std::pair<unsigned int const ,cpp_object *>,std::allocator<std::pair<unsigned int const ,cpp_object *> > > >,std::allocator<std::_List_iterator<std::_List_val<std::pair<unsigned int const ,cpp_object *>,std::allocator<std::pair<unsigned int const ,cpp_object *> > > > > >::max_size
PUBLIC	?_Check_size@?$_Hash@V?$_Umap_traits@IPAUcpp_object@@V?$_Hash_compare@IVcpp_tommy_inthash_u32@@U?$equal_to@I@std@@@std@@V?$allocator@U?$pair@$$CBIPAUcpp_object@@@std@@@3@$0A@@tr1@std@@@std@@IAEXXZ ; std::_Hash<std::tr1::_Umap_traits<unsigned int,cpp_object *,std::_Hash_compare<unsigned int,cpp_tommy_inthash_u32,std::equal_to<unsigned int> >,std::allocator<std::pair<unsigned int const ,cpp_object *> >,0> >::_Check_size
PUBLIC	??$forward@_N@std@@YA$$QA_NAA_N@Z		; std::forward<bool>
PUBLIC	??$forward@AAV?$_List_iterator@V?$_List_val@U?$pair@$$CBIPAUcpp_object@@@std@@V?$allocator@U?$pair@$$CBIPAUcpp_object@@@std@@@2@@std@@@std@@@std@@YAAAV?$_List_iterator@V?$_List_val@U?$pair@$$CBIPAUcpp_object@@@std@@V?$allocator@U?$pair@$$CBIPAUcpp_object@@@std@@@2@@std@@@0@AAV10@@Z ; std::forward<std::_List_iterator<std::_List_val<std::pair<unsigned int const ,cpp_object *>,std::allocator<std::pair<unsigned int const ,cpp_object *> > > > &>
PUBLIC	??$?0AAV?$_List_iterator@V?$_List_val@U?$pair@$$CBIPAUcpp_object@@@std@@V?$allocator@U?$pair@$$CBIPAUcpp_object@@@std@@@2@@std@@@std@@_N@?$_Pair_base@V?$_List_iterator@V?$_List_val@U?$pair@$$CBIPAUcpp_object@@@std@@V?$allocator@U?$pair@$$CBIPAUcpp_object@@@std@@@2@@std@@@std@@_N@std@@QAE@AAV?$_List_iterator@V?$_List_val@U?$pair@$$CBIPAUcpp_object@@@std@@V?$allocator@U?$pair@$$CBIPAUcpp_object@@@std@@@2@@std@@@1@$$QA_N@Z ; std::_Pair_base<std::_List_iterator<std::_List_val<std::pair<unsigned int const ,cpp_object *>,std::allocator<std::pair<unsigned int const ,cpp_object *> > > >,bool>::_Pair_base<std::_List_iterator<std::_List_val<std::pair<unsigned int const ,cpp_object *>,std::allocator<std::pair<unsigned int const ,cpp_object *> > > >,bool><std::_List_iterator<std::_List_val<std::pair<unsigned int const ,cpp_object *>,std::allocator<std::pair<unsigned int const ,cpp_object *> > > > &,bool>
PUBLIC	??$?0AAV?$_List_iterator@V?$_List_val@U?$pair@$$CBIPAUcpp_object@@@std@@V?$allocator@U?$pair@$$CBIPAUcpp_object@@@std@@@2@@std@@@std@@_N@?$pair@V?$_List_iterator@V?$_List_val@U?$pair@$$CBIPAUcpp_object@@@std@@V?$allocator@U?$pair@$$CBIPAUcpp_object@@@std@@@2@@std@@@std@@_N@std@@QAE@AAV?$_List_iterator@V?$_List_val@U?$pair@$$CBIPAUcpp_object@@@std@@V?$allocator@U?$pair@$$CBIPAUcpp_object@@@std@@@2@@std@@@1@$$QA_N@Z ; std::pair<std::_List_iterator<std::_List_val<std::pair<unsigned int const ,cpp_object *>,std::allocator<std::pair<unsigned int const ,cpp_object *> > > >,bool>::pair<std::_List_iterator<std::_List_val<std::pair<unsigned int const ,cpp_object *>,std::allocator<std::pair<unsigned int const ,cpp_object *> > > >,bool><std::_List_iterator<std::_List_val<std::pair<unsigned int const ,cpp_object *>,std::allocator<std::pair<unsigned int const ,cpp_object *> > > > &,bool>
PUBLIC	?_Insert@?$_Hash@V?$_Umap_traits@IPAUcpp_object@@V?$_Hash_compare@IVcpp_tommy_inthash_u32@@U?$equal_to@I@std@@@std@@V?$allocator@U?$pair@$$CBIPAUcpp_object@@@std@@@3@$0A@@tr1@std@@@std@@IAE?AU?$pair@V?$_List_iterator@V?$_List_val@U?$pair@$$CBIPAUcpp_object@@@std@@V?$allocator@U?$pair@$$CBIPAUcpp_object@@@std@@@2@@std@@@std@@_N@2@ABU?$pair@$$CBIPAUcpp_object@@@2@V?$_List_iterator@V?$_List_val@U?$pair@$$CBIPAUcpp_object@@@std@@V?$allocator@U?$pair@$$CBIPAUcpp_object@@@std@@@2@@std@@@2@@Z ; std::_Hash<std::tr1::_Umap_traits<unsigned int,cpp_object *,std::_Hash_compare<unsigned int,cpp_tommy_inthash_u32,std::equal_to<unsigned int> >,std::allocator<std::pair<unsigned int const ,cpp_object *> >,0> >::_Insert
PUBLIC	?begin@?$list@U?$pair@$$CBIPAUcpp_object@@@std@@V?$allocator@U?$pair@$$CBIPAUcpp_object@@@std@@@2@@std@@QAE?AV?$_List_iterator@V?$_List_val@U?$pair@$$CBIPAUcpp_object@@@std@@V?$allocator@U?$pair@$$CBIPAUcpp_object@@@std@@@2@@std@@@2@XZ ; std::list<std::pair<unsigned int const ,cpp_object *>,std::allocator<std::pair<unsigned int const ,cpp_object *> > >::begin
PUBLIC	?max_size@?$allocator@U?$pair@$$CBIPAUcpp_object@@@std@@@std@@QBEIXZ ; std::allocator<std::pair<unsigned int const ,cpp_object *> >::max_size
PUBLIC	?max_size@?$list@U?$pair@$$CBIPAUcpp_object@@@std@@V?$allocator@U?$pair@$$CBIPAUcpp_object@@@std@@@2@@std@@QBEIXZ ; std::list<std::pair<unsigned int const ,cpp_object *>,std::allocator<std::pair<unsigned int const ,cpp_object *> > >::max_size
PUBLIC	?_Incsize@?$list@U?$pair@$$CBIPAUcpp_object@@@std@@V?$allocator@U?$pair@$$CBIPAUcpp_object@@@std@@@2@@std@@QAEXI@Z ; std::list<std::pair<unsigned int const ,cpp_object *>,std::allocator<std::pair<unsigned int const ,cpp_object *> > >::_Incsize
PUBLIC	??0bad_alloc@std@@QAE@PBD@Z			; std::bad_alloc::bad_alloc
PUBLIC	??1bad_alloc@std@@UAE@XZ			; std::bad_alloc::~bad_alloc
PUBLIC	??_Gbad_alloc@std@@UAEPAXI@Z			; std::bad_alloc::`scalar deleting destructor'
PUBLIC	??0bad_alloc@std@@QAE@ABV01@@Z			; std::bad_alloc::bad_alloc
PUBLIC	??$_Allocate@U_Node@?$_List_nod@U?$pair@$$CBIPAUcpp_object@@@std@@V?$allocator@U?$pair@$$CBIPAUcpp_object@@@std@@@2@@std@@@std@@YAPAU_Node@?$_List_nod@U?$pair@$$CBIPAUcpp_object@@@std@@V?$allocator@U?$pair@$$CBIPAUcpp_object@@@std@@@2@@0@IPAU120@@Z ; std::_Allocate<std::_List_nod<std::pair<unsigned int const ,cpp_object *>,std::allocator<std::pair<unsigned int const ,cpp_object *> > >::_Node>
PUBLIC	?allocate@?$allocator@U_Node@?$_List_nod@U?$pair@$$CBIPAUcpp_object@@@std@@V?$allocator@U?$pair@$$CBIPAUcpp_object@@@std@@@2@@std@@@std@@QAEPAU_Node@?$_List_nod@U?$pair@$$CBIPAUcpp_object@@@std@@V?$allocator@U?$pair@$$CBIPAUcpp_object@@@std@@@2@@2@I@Z ; std::allocator<std::_List_nod<std::pair<unsigned int const ,cpp_object *>,std::allocator<std::pair<unsigned int const ,cpp_object *> > >::_Node>::allocate
PUBLIC	??$move@AAPAUcpp_object@@@std@@YA$$QAPAUcpp_object@@AAPAU1@@Z ; std::move<cpp_object * &>
PUBLIC	??$move@ABI@std@@YA$$QBIABI@Z			; std::move<unsigned int const &>
PUBLIC	??0?$_Pair_base@$$CBIPAUcpp_object@@@std@@QAE@$$QBI$$QAPAUcpp_object@@@Z ; std::_Pair_base<unsigned int const ,cpp_object *>::_Pair_base<unsigned int const ,cpp_object *>
PUBLIC	??$forward@$$CBI@std@@YA$$QBIABI@Z		; std::forward<unsigned int const >
PUBLIC	??$forward@PAUcpp_object@@@std@@YA$$QAPAUcpp_object@@AAPAU1@@Z ; std::forward<cpp_object *>
PUBLIC	??$?0$$CBIPAUcpp_object@@@?$pair@$$CBIPAUcpp_object@@@std@@QAE@$$QAU01@@Z ; std::pair<unsigned int const ,cpp_object *>::pair<unsigned int const ,cpp_object *><unsigned int const ,cpp_object *>
PUBLIC	?construct@?$allocator@U?$pair@$$CBIPAUcpp_object@@@std@@@std@@QAEXPAU?$pair@$$CBIPAUcpp_object@@@2@$$QAU32@@Z ; std::allocator<std::pair<unsigned int const ,cpp_object *> >::construct
PUBLIC	??$forward@U?$pair@$$CBIPAUcpp_object@@@std@@@std@@YA$$QAU?$pair@$$CBIPAUcpp_object@@@0@AAU10@@Z ; std::forward<std::pair<unsigned int const ,cpp_object *> >
PUBLIC	??$_Cons_val@V?$allocator@U?$pair@$$CBIPAUcpp_object@@@std@@@std@@U?$pair@$$CBIPAUcpp_object@@@2@U32@@std@@YAXAAV?$allocator@U?$pair@$$CBIPAUcpp_object@@@std@@@0@PAU?$pair@$$CBIPAUcpp_object@@@0@$$QAU20@@Z ; std::_Cons_val<std::allocator<std::pair<unsigned int const ,cpp_object *> >,std::pair<unsigned int const ,cpp_object *>,std::pair<unsigned int const ,cpp_object *> >
PUBLIC	??$_Buynode@U?$pair@$$CBIPAUcpp_object@@@std@@@?$_List_val@U?$pair@$$CBIPAUcpp_object@@@std@@V?$allocator@U?$pair@$$CBIPAUcpp_object@@@std@@@2@@std@@QAEPAU_Node@?$_List_nod@U?$pair@$$CBIPAUcpp_object@@@std@@V?$allocator@U?$pair@$$CBIPAUcpp_object@@@std@@@2@@1@PAU231@0$$QAU?$pair@$$CBIPAUcpp_object@@@1@@Z ; std::_List_val<std::pair<unsigned int const ,cpp_object *>,std::allocator<std::pair<unsigned int const ,cpp_object *> > >::_Buynode<std::pair<unsigned int const ,cpp_object *> >
PUBLIC	??$_Insert_rv@U?$pair@$$CBIPAUcpp_object@@@std@@@?$list@U?$pair@$$CBIPAUcpp_object@@@std@@V?$allocator@U?$pair@$$CBIPAUcpp_object@@@std@@@2@@std@@QAEXV?$_List_const_iterator@V?$_List_val@U?$pair@$$CBIPAUcpp_object@@@std@@V?$allocator@U?$pair@$$CBIPAUcpp_object@@@std@@@2@@std@@@1@$$QAU?$pair@$$CBIPAUcpp_object@@@1@@Z ; std::list<std::pair<unsigned int const ,cpp_object *>,std::allocator<std::pair<unsigned int const ,cpp_object *> > >::_Insert_rv<std::pair<unsigned int const ,cpp_object *> >
PUBLIC	??$emplace_front@U?$pair@$$CBIPAUcpp_object@@@std@@@?$list@U?$pair@$$CBIPAUcpp_object@@@std@@V?$allocator@U?$pair@$$CBIPAUcpp_object@@@std@@@2@@std@@QAEX$$QAU?$pair@$$CBIPAUcpp_object@@@1@@Z ; std::list<std::pair<unsigned int const ,cpp_object *>,std::allocator<std::pair<unsigned int const ,cpp_object *> > >::emplace_front<std::pair<unsigned int const ,cpp_object *> >
PUBLIC	??$insert@U?$pair@$$CBIPAUcpp_object@@@std@@@?$_Hash@V?$_Umap_traits@IPAUcpp_object@@V?$_Hash_compare@IVcpp_tommy_inthash_u32@@U?$equal_to@I@std@@@std@@V?$allocator@U?$pair@$$CBIPAUcpp_object@@@std@@@3@$0A@@tr1@std@@@std@@QAE?AU?$pair@V?$_List_iterator@V?$_List_val@U?$pair@$$CBIPAUcpp_object@@@std@@V?$allocator@U?$pair@$$CBIPAUcpp_object@@@std@@@2@@std@@@std@@_N@1@$$QAU?$pair@$$CBIPAUcpp_object@@@1@@Z ; std::_Hash<std::tr1::_Umap_traits<unsigned int,cpp_object *,std::_Hash_compare<unsigned int,cpp_tommy_inthash_u32,std::equal_to<unsigned int> >,std::allocator<std::pair<unsigned int const ,cpp_object *> >,0> >::insert<std::pair<unsigned int const ,cpp_object *> >
PUBLIC	??A?$unordered_map@IPAUcpp_object@@Vcpp_tommy_inthash_u32@@U?$equal_to@I@std@@V?$allocator@U?$pair@$$CBIPAUcpp_object@@@std@@@4@@tr1@std@@QAEAAPAUcpp_object@@ABI@Z ; std::tr1::unordered_map<unsigned int,cpp_object *,cpp_tommy_inthash_u32,std::equal_to<unsigned int>,std::allocator<std::pair<unsigned int const ,cpp_object *> > >::operator[]
PUBLIC	?end@?$dense_hash_map@IPAUgoogle_object@@Vcpp_tommy_inthash_u32@@U?$equal_to@I@std@@V?$libc_allocator_with_realloc@U?$pair@$$CBIPAUgoogle_object@@@std@@@google@@@google@@QAE?AU?$dense_hashtable_iterator@U?$pair@$$CBIPAUgoogle_object@@@std@@IVcpp_tommy_inthash_u32@@USelectKey@?$dense_hash_map@IPAUgoogle_object@@Vcpp_tommy_inthash_u32@@U?$equal_to@I@std@@V?$libc_allocator_with_realloc@U?$pair@$$CBIPAUgoogle_object@@@std@@@google@@@google@@USetKey@56@U?$equal_to@I@2@V?$libc_allocator_with_realloc@U?$pair@$$CBIPAUgoogle_object@@@std@@@6@@2@XZ ; google::dense_hash_map<unsigned int,google_object *,cpp_tommy_inthash_u32,std::equal_to<unsigned int>,google::libc_allocator_with_realloc<std::pair<unsigned int const ,google_object *> > >::end
PUBLIC	?max@?$numeric_limits@I@std@@SAIXZ		; std::numeric_limits<unsigned int>::max
PUBLIC	?shrink_factor@?$sh_hashtable_settings@IVcpp_tommy_inthash_u32@@I$03@@QBEMXZ ; sh_hashtable_settings<unsigned int,cpp_tommy_inthash_u32,unsigned int,4>::shrink_factor
PUBLIC	?shrink_threshold@?$sh_hashtable_settings@IVcpp_tommy_inthash_u32@@I$03@@QBEIXZ ; sh_hashtable_settings<unsigned int,cpp_tommy_inthash_u32,unsigned int,4>::shrink_threshold
PUBLIC	?maybe_shrink@?$dense_hashtable@U?$pair@$$CBIPAUgoogle_object@@@std@@IVcpp_tommy_inthash_u32@@USelectKey@?$dense_hash_map@IPAUgoogle_object@@Vcpp_tommy_inthash_u32@@U?$equal_to@I@std@@V?$libc_allocator_with_realloc@U?$pair@$$CBIPAUgoogle_object@@@std@@@google@@@google@@USetKey@56@U?$equal_to@I@2@V?$libc_allocator_with_realloc@U?$pair@$$CBIPAUgoogle_object@@@std@@@6@@google@@AAE_NXZ ; google::dense_hashtable<std::pair<unsigned int const ,google_object *>,unsigned int,cpp_tommy_inthash_u32,google::dense_hash_map<unsigned int,google_object *,cpp_tommy_inthash_u32,std::equal_to<unsigned int>,google::libc_allocator_with_realloc<std::pair<unsigned int const ,google_object *> > >::SelectKey,google::dense_hash_map<unsigned int,google_object *,cpp_tommy_inthash_u32,std::equal_to<unsigned int>,google::libc_allocator_with_realloc<std::pair<unsigned int const ,google_object *> > >::SetKey,std::equal_to<unsigned int>,google::libc_allocator_with_realloc<std::pair<unsigned int const ,google_object *> > >::maybe_shrink
PUBLIC	?begin@?$dense_hashtable@U?$pair@$$CBIPAUgoogle_object@@@std@@IVcpp_tommy_inthash_u32@@USelectKey@?$dense_hash_map@IPAUgoogle_object@@Vcpp_tommy_inthash_u32@@U?$equal_to@I@std@@V?$libc_allocator_with_realloc@U?$pair@$$CBIPAUgoogle_object@@@std@@@google@@@google@@USetKey@56@U?$equal_to@I@2@V?$libc_allocator_with_realloc@U?$pair@$$CBIPAUgoogle_object@@@std@@@6@@google@@QBE?AU?$dense_hashtable_const_iterator@U?$pair@$$CBIPAUgoogle_object@@@std@@IVcpp_tommy_inthash_u32@@USelectKey@?$dense_hash_map@IPAUgoogle_object@@Vcpp_tommy_inthash_u32@@U?$equal_to@I@std@@V?$libc_allocator_with_realloc@U?$pair@$$CBIPAUgoogle_object@@@std@@@google@@@google@@USetKey@56@U?$equal_to@I@2@V?$libc_allocator_with_realloc@U?$pair@$$CBIPAUgoogle_object@@@std@@@6@@2@XZ ; google::dense_hashtable<std::pair<unsigned int const ,google_object *>,unsigned int,cpp_tommy_inthash_u32,google::dense_hash_map<unsigned int,google_object *,cpp_tommy_inthash_u32,std::equal_to<unsigned int>,google::libc_allocator_with_realloc<std::pair<unsigned int const ,google_object *> > >::SelectKey,google::dense_hash_map<unsigned int,google_object *,cpp_tommy_inthash_u32,std::equal_to<unsigned int>,google::libc_allocator_with_realloc<std::pair<unsigned int const ,google_object *> > >::SetKey,std::equal_to<unsigned int>,google::libc_allocator_with_realloc<std::pair<unsigned int const ,google_object *> > >::begin
PUBLIC	??0?$dense_hashtable_const_iterator@U?$pair@$$CBIPAUgoogle_object@@@std@@IVcpp_tommy_inthash_u32@@USelectKey@?$dense_hash_map@IPAUgoogle_object@@Vcpp_tommy_inthash_u32@@U?$equal_to@I@std@@V?$libc_allocator_with_realloc@U?$pair@$$CBIPAUgoogle_object@@@std@@@google@@@google@@USetKey@56@U?$equal_to@I@2@V?$libc_allocator_with_realloc@U?$pair@$$CBIPAUgoogle_object@@@std@@@6@@google@@QAE@PBV?$dense_hashtable@U?$pair@$$CBIPAUgoogle_object@@@std@@IVcpp_tommy_inthash_u32@@USelectKey@?$dense_hash_map@IPAUgoogle_object@@Vcpp_tommy_inthash_u32@@U?$equal_to@I@std@@V?$libc_allocator_with_realloc@U?$pair@$$CBIPAUgoogle_object@@@std@@@google@@@google@@USetKey@56@U?$equal_to@I@2@V?$libc_allocator_with_realloc@U?$pair@$$CBIPAUgoogle_object@@@std@@@6@@1@PBU?$pair@$$CBIPAUgoogle_object@@@std@@1_N@Z ; google::dense_hashtable_const_iterator<std::pair<unsigned int const ,google_object *>,unsigned int,cpp_tommy_inthash_u32,google::dense_hash_map<unsigned int,google_object *,cpp_tommy_inthash_u32,std::equal_to<unsigned int>,google::libc_allocator_with_realloc<std::pair<unsigned int const ,google_object *> > >::SelectKey,google::dense_hash_map<unsigned int,google_object *,cpp_tommy_inthash_u32,std::equal_to<unsigned int>,google::libc_allocator_with_realloc<std::pair<unsigned int const ,google_object *> > >::SetKey,std::equal_to<unsigned int>,google::libc_allocator_with_realloc<std::pair<unsigned int const ,google_object *> > >::dense_hashtable_const_iterator<std::pair<unsigned int const ,google_object *>,unsigned int,cpp_tommy_inthash_u32,google::dense_hash_map<unsigned int,google_object *,cpp_tommy_inthash_u32,std::equal_to<unsigned int>,google::libc_allocator_with_realloc<std::pair<unsigned int const ,google_object *> > >::SelectKey,google::dense_hash_map<unsigned int,google_object *,cpp_tommy_inthash_u32,std::equal_to<unsigned int>,google::libc_allocator_with_realloc<std::pair<unsigned int const ,google_object *> > >::SetKey,std::equal_to<unsigned int>,google::libc_allocator_with_realloc<std::pair<unsigned int const ,google_object *> > >
PUBLIC	?end@?$dense_hashtable@U?$pair@$$CBIPAUgoogle_object@@@std@@IVcpp_tommy_inthash_u32@@USelectKey@?$dense_hash_map@IPAUgoogle_object@@Vcpp_tommy_inthash_u32@@U?$equal_to@I@std@@V?$libc_allocator_with_realloc@U?$pair@$$CBIPAUgoogle_object@@@std@@@google@@@google@@USetKey@56@U?$equal_to@I@2@V?$libc_allocator_with_realloc@U?$pair@$$CBIPAUgoogle_object@@@std@@@6@@google@@QBE?AU?$dense_hashtable_const_iterator@U?$pair@$$CBIPAUgoogle_object@@@std@@IVcpp_tommy_inthash_u32@@USelectKey@?$dense_hash_map@IPAUgoogle_object@@Vcpp_tommy_inthash_u32@@U?$equal_to@I@std@@V?$libc_allocator_with_realloc@U?$pair@$$CBIPAUgoogle_object@@@std@@@google@@@google@@USetKey@56@U?$equal_to@I@2@V?$libc_allocator_with_realloc@U?$pair@$$CBIPAUgoogle_object@@@std@@@6@@2@XZ ; google::dense_hashtable<std::pair<unsigned int const ,google_object *>,unsigned int,cpp_tommy_inthash_u32,google::dense_hash_map<unsigned int,google_object *,cpp_tommy_inthash_u32,std::equal_to<unsigned int>,google::libc_allocator_with_realloc<std::pair<unsigned int const ,google_object *> > >::SelectKey,google::dense_hash_map<unsigned int,google_object *,cpp_tommy_inthash_u32,std::equal_to<unsigned int>,google::libc_allocator_with_realloc<std::pair<unsigned int const ,google_object *> > >::SetKey,std::equal_to<unsigned int>,google::libc_allocator_with_realloc<std::pair<unsigned int const ,google_object *> > >::end
PUBLIC	?allocate@?$libc_allocator_with_realloc@U?$pair@$$CBIPAUgoogle_object@@@std@@@google@@QAEPAU?$pair@$$CBIPAUgoogle_object@@@std@@IPBU34@@Z ; google::libc_allocator_with_realloc<std::pair<unsigned int const ,google_object *> >::allocate
PUBLIC	??$_Ptr_cat@U?$pair@$$CBIPAUgoogle_object@@@std@@U12@@std@@YA?AU_Nonscalar_ptr_iterator_tag@0@PAU?$pair@$$CBIPAUgoogle_object@@@0@0@Z ; std::_Ptr_cat<std::pair<unsigned int const ,google_object *>,std::pair<unsigned int const ,google_object *> >
PUBLIC	??$forward@ABU?$pair@$$CBIPAUgoogle_object@@@std@@@std@@YAABU?$pair@$$CBIPAUgoogle_object@@@0@ABU10@@Z ; std::forward<std::pair<unsigned int const ,google_object *> const &>
PUBLIC	??$_Construct@U?$pair@$$CBIPAUgoogle_object@@@std@@ABU12@@std@@YAXPAU?$pair@$$CBIPAUgoogle_object@@@0@ABU10@@Z ; std::_Construct<std::pair<unsigned int const ,google_object *>,std::pair<unsigned int const ,google_object *> const &>
PUBLIC	??$_Destroy@U?$pair@$$CBIPAUgoogle_object@@@std@@@std@@YAXPAU?$pair@$$CBIPAUgoogle_object@@@0@@Z ; std::_Destroy<std::pair<unsigned int const ,google_object *> >
PUBLIC	??$_Uninit_fill@PAU?$pair@$$CBIPAUgoogle_object@@@std@@U12@@std@@YAXPAU?$pair@$$CBIPAUgoogle_object@@@0@0ABU10@U_Nonscalar_ptr_iterator_tag@0@@Z ; std::_Uninit_fill<std::pair<unsigned int const ,google_object *> *,std::pair<unsigned int const ,google_object *> >
PUBLIC	??$uninitialized_fill@PAU?$pair@$$CBIPAUgoogle_object@@@std@@U12@@std@@YAXPAU?$pair@$$CBIPAUgoogle_object@@@0@0ABU10@@Z ; std::uninitialized_fill<std::pair<unsigned int const ,google_object *> *,std::pair<unsigned int const ,google_object *> >
PUBLIC	?fill_range_with_empty@?$dense_hashtable@U?$pair@$$CBIPAUgoogle_object@@@std@@IVcpp_tommy_inthash_u32@@USelectKey@?$dense_hash_map@IPAUgoogle_object@@Vcpp_tommy_inthash_u32@@U?$equal_to@I@std@@V?$libc_allocator_with_realloc@U?$pair@$$CBIPAUgoogle_object@@@std@@@google@@@google@@USetKey@56@U?$equal_to@I@2@V?$libc_allocator_with_realloc@U?$pair@$$CBIPAUgoogle_object@@@std@@@6@@google@@AAEXPAU?$pair@$$CBIPAUgoogle_object@@@std@@0@Z ; google::dense_hashtable<std::pair<unsigned int const ,google_object *>,unsigned int,cpp_tommy_inthash_u32,google::dense_hash_map<unsigned int,google_object *,cpp_tommy_inthash_u32,std::equal_to<unsigned int>,google::libc_allocator_with_realloc<std::pair<unsigned int const ,google_object *> > >::SelectKey,google::dense_hash_map<unsigned int,google_object *,cpp_tommy_inthash_u32,std::equal_to<unsigned int>,google::libc_allocator_with_realloc<std::pair<unsigned int const ,google_object *> > >::SetKey,std::equal_to<unsigned int>,google::libc_allocator_with_realloc<std::pair<unsigned int const ,google_object *> > >::fill_range_with_empty
PUBLIC	?reallocate@?$libc_allocator_with_realloc@U?$pair@$$CBIPAUgoogle_object@@@std@@@google@@QAEPAU?$pair@$$CBIPAUgoogle_object@@@std@@PAU34@I@Z ; google::libc_allocator_with_realloc<std::pair<unsigned int const ,google_object *> >::reallocate
PUBLIC	?realloc_or_die@?$alloc_impl@V?$libc_allocator_with_realloc@U?$pair@$$CBIPAUgoogle_object@@@std@@@google@@@?$dense_hashtable@U?$pair@$$CBIPAUgoogle_object@@@std@@IVcpp_tommy_inthash_u32@@USelectKey@?$dense_hash_map@IPAUgoogle_object@@Vcpp_tommy_inthash_u32@@U?$equal_to@I@std@@V?$libc_allocator_with_realloc@U?$pair@$$CBIPAUgoogle_object@@@std@@@google@@@google@@USetKey@56@U?$equal_to@I@2@V?$libc_allocator_with_realloc@U?$pair@$$CBIPAUgoogle_object@@@std@@@6@@google@@QAEPAU?$pair@$$CBIPAUgoogle_object@@@std@@PAU45@I@Z ; google::dense_hashtable<std::pair<unsigned int const ,google_object *>,unsigned int,cpp_tommy_inthash_u32,google::dense_hash_map<unsigned int,google_object *,cpp_tommy_inthash_u32,std::equal_to<unsigned int>,google::libc_allocator_with_realloc<std::pair<unsigned int const ,google_object *> > >::SelectKey,google::dense_hash_map<unsigned int,google_object *,cpp_tommy_inthash_u32,std::equal_to<unsigned int>,google::libc_allocator_with_realloc<std::pair<unsigned int const ,google_object *> > >::SetKey,std::equal_to<unsigned int>,google::libc_allocator_with_realloc<std::pair<unsigned int const ,google_object *> > >::alloc_impl<google::libc_allocator_with_realloc<std::pair<unsigned int const ,google_object *> > >::realloc_or_die
PUBLIC	?resize_table@?$dense_hashtable@U?$pair@$$CBIPAUgoogle_object@@@std@@IVcpp_tommy_inthash_u32@@USelectKey@?$dense_hash_map@IPAUgoogle_object@@Vcpp_tommy_inthash_u32@@U?$equal_to@I@std@@V?$libc_allocator_with_realloc@U?$pair@$$CBIPAUgoogle_object@@@std@@@google@@@google@@USetKey@56@U?$equal_to@I@2@V?$libc_allocator_with_realloc@U?$pair@$$CBIPAUgoogle_object@@@std@@@6@@google@@AAEXIIU?$integral_constant@_N$00@2@@Z ; google::dense_hashtable<std::pair<unsigned int const ,google_object *>,unsigned int,cpp_tommy_inthash_u32,google::dense_hash_map<unsigned int,google_object *,cpp_tommy_inthash_u32,std::equal_to<unsigned int>,google::libc_allocator_with_realloc<std::pair<unsigned int const ,google_object *> > >::SelectKey,google::dense_hash_map<unsigned int,google_object *,cpp_tommy_inthash_u32,std::equal_to<unsigned int>,google::libc_allocator_with_realloc<std::pair<unsigned int const ,google_object *> > >::SetKey,std::equal_to<unsigned int>,google::libc_allocator_with_realloc<std::pair<unsigned int const ,google_object *> > >::resize_table
PUBLIC	?clear_to_size@?$dense_hashtable@U?$pair@$$CBIPAUgoogle_object@@@std@@IVcpp_tommy_inthash_u32@@USelectKey@?$dense_hash_map@IPAUgoogle_object@@Vcpp_tommy_inthash_u32@@U?$equal_to@I@std@@V?$libc_allocator_with_realloc@U?$pair@$$CBIPAUgoogle_object@@@std@@@google@@@google@@USetKey@56@U?$equal_to@I@2@V?$libc_allocator_with_realloc@U?$pair@$$CBIPAUgoogle_object@@@std@@@6@@google@@AAEXI@Z ; google::dense_hashtable<std::pair<unsigned int const ,google_object *>,unsigned int,cpp_tommy_inthash_u32,google::dense_hash_map<unsigned int,google_object *,cpp_tommy_inthash_u32,std::equal_to<unsigned int>,google::libc_allocator_with_realloc<std::pair<unsigned int const ,google_object *> > >::SelectKey,google::dense_hash_map<unsigned int,google_object *,cpp_tommy_inthash_u32,std::equal_to<unsigned int>,google::libc_allocator_with_realloc<std::pair<unsigned int const ,google_object *> > >::SetKey,std::equal_to<unsigned int>,google::libc_allocator_with_realloc<std::pair<unsigned int const ,google_object *> > >::clear_to_size
PUBLIC	?inc_num_ht_copies@?$sh_hashtable_settings@IVcpp_tommy_inthash_u32@@I$03@@QAEXXZ ; sh_hashtable_settings<unsigned int,cpp_tommy_inthash_u32,unsigned int,4>::inc_num_ht_copies
PUBLIC	?test_deleted@?$dense_hashtable@U?$pair@$$CBIPAUgoogle_object@@@std@@IVcpp_tommy_inthash_u32@@USelectKey@?$dense_hash_map@IPAUgoogle_object@@Vcpp_tommy_inthash_u32@@U?$equal_to@I@std@@V?$libc_allocator_with_realloc@U?$pair@$$CBIPAUgoogle_object@@@std@@@google@@@google@@USetKey@56@U?$equal_to@I@2@V?$libc_allocator_with_realloc@U?$pair@$$CBIPAUgoogle_object@@@std@@@6@@google@@QBE_NABU?$dense_hashtable_const_iterator@U?$pair@$$CBIPAUgoogle_object@@@std@@IVcpp_tommy_inthash_u32@@USelectKey@?$dense_hash_map@IPAUgoogle_object@@Vcpp_tommy_inthash_u32@@U?$equal_to@I@std@@V?$libc_allocator_with_realloc@U?$pair@$$CBIPAUgoogle_object@@@std@@@google@@@google@@USetKey@56@U?$equal_to@I@2@V?$libc_allocator_with_realloc@U?$pair@$$CBIPAUgoogle_object@@@std@@@6@@2@@Z ; google::dense_hashtable<std::pair<unsigned int const ,google_object *>,unsigned int,cpp_tommy_inthash_u32,google::dense_hash_map<unsigned int,google_object *,cpp_tommy_inthash_u32,std::equal_to<unsigned int>,google::libc_allocator_with_realloc<std::pair<unsigned int const ,google_object *> > >::SelectKey,google::dense_hash_map<unsigned int,google_object *,cpp_tommy_inthash_u32,std::equal_to<unsigned int>,google::libc_allocator_with_realloc<std::pair<unsigned int const ,google_object *> > >::SetKey,std::equal_to<unsigned int>,google::libc_allocator_with_realloc<std::pair<unsigned int const ,google_object *> > >::test_deleted
PUBLIC	??D?$dense_hashtable_const_iterator@U?$pair@$$CBIPAUgoogle_object@@@std@@IVcpp_tommy_inthash_u32@@USelectKey@?$dense_hash_map@IPAUgoogle_object@@Vcpp_tommy_inthash_u32@@U?$equal_to@I@std@@V?$libc_allocator_with_realloc@U?$pair@$$CBIPAUgoogle_object@@@std@@@google@@@google@@USetKey@56@U?$equal_to@I@2@V?$libc_allocator_with_realloc@U?$pair@$$CBIPAUgoogle_object@@@std@@@6@@google@@QBEABU?$pair@$$CBIPAUgoogle_object@@@std@@XZ ; google::dense_hashtable_const_iterator<std::pair<unsigned int const ,google_object *>,unsigned int,cpp_tommy_inthash_u32,google::dense_hash_map<unsigned int,google_object *,cpp_tommy_inthash_u32,std::equal_to<unsigned int>,google::libc_allocator_with_realloc<std::pair<unsigned int const ,google_object *> > >::SelectKey,google::dense_hash_map<unsigned int,google_object *,cpp_tommy_inthash_u32,std::equal_to<unsigned int>,google::libc_allocator_with_realloc<std::pair<unsigned int const ,google_object *> > >::SetKey,std::equal_to<unsigned int>,google::libc_allocator_with_realloc<std::pair<unsigned int const ,google_object *> > >::operator*
PUBLIC	?test_empty@?$dense_hashtable@U?$pair@$$CBIPAUgoogle_object@@@std@@IVcpp_tommy_inthash_u32@@USelectKey@?$dense_hash_map@IPAUgoogle_object@@Vcpp_tommy_inthash_u32@@U?$equal_to@I@std@@V?$libc_allocator_with_realloc@U?$pair@$$CBIPAUgoogle_object@@@std@@@google@@@google@@USetKey@56@U?$equal_to@I@2@V?$libc_allocator_with_realloc@U?$pair@$$CBIPAUgoogle_object@@@std@@@6@@google@@QBE_NABU?$dense_hashtable_const_iterator@U?$pair@$$CBIPAUgoogle_object@@@std@@IVcpp_tommy_inthash_u32@@USelectKey@?$dense_hash_map@IPAUgoogle_object@@Vcpp_tommy_inthash_u32@@U?$equal_to@I@std@@V?$libc_allocator_with_realloc@U?$pair@$$CBIPAUgoogle_object@@@std@@@google@@@google@@USetKey@56@U?$equal_to@I@2@V?$libc_allocator_with_realloc@U?$pair@$$CBIPAUgoogle_object@@@std@@@6@@2@@Z ; google::dense_hashtable<std::pair<unsigned int const ,google_object *>,unsigned int,cpp_tommy_inthash_u32,google::dense_hash_map<unsigned int,google_object *,cpp_tommy_inthash_u32,std::equal_to<unsigned int>,google::libc_allocator_with_realloc<std::pair<unsigned int const ,google_object *> > >::SelectKey,google::dense_hash_map<unsigned int,google_object *,cpp_tommy_inthash_u32,std::equal_to<unsigned int>,google::libc_allocator_with_realloc<std::pair<unsigned int const ,google_object *> > >::SetKey,std::equal_to<unsigned int>,google::libc_allocator_with_realloc<std::pair<unsigned int const ,google_object *> > >::test_empty
PUBLIC	?advance_past_empty_and_deleted@?$dense_hashtable_const_iterator@U?$pair@$$CBIPAUgoogle_object@@@std@@IVcpp_tommy_inthash_u32@@USelectKey@?$dense_hash_map@IPAUgoogle_object@@Vcpp_tommy_inthash_u32@@U?$equal_to@I@std@@V?$libc_allocator_with_realloc@U?$pair@$$CBIPAUgoogle_object@@@std@@@google@@@google@@USetKey@56@U?$equal_to@I@2@V?$libc_allocator_with_realloc@U?$pair@$$CBIPAUgoogle_object@@@std@@@6@@google@@QAEXXZ ; google::dense_hashtable_const_iterator<std::pair<unsigned int const ,google_object *>,unsigned int,cpp_tommy_inthash_u32,google::dense_hash_map<unsigned int,google_object *,cpp_tommy_inthash_u32,std::equal_to<unsigned int>,google::libc_allocator_with_realloc<std::pair<unsigned int const ,google_object *> > >::SelectKey,google::dense_hash_map<unsigned int,google_object *,cpp_tommy_inthash_u32,std::equal_to<unsigned int>,google::libc_allocator_with_realloc<std::pair<unsigned int const ,google_object *> > >::SetKey,std::equal_to<unsigned int>,google::libc_allocator_with_realloc<std::pair<unsigned int const ,google_object *> > >::advance_past_empty_and_deleted
PUBLIC	??E?$dense_hashtable_const_iterator@U?$pair@$$CBIPAUgoogle_object@@@std@@IVcpp_tommy_inthash_u32@@USelectKey@?$dense_hash_map@IPAUgoogle_object@@Vcpp_tommy_inthash_u32@@U?$equal_to@I@std@@V?$libc_allocator_with_realloc@U?$pair@$$CBIPAUgoogle_object@@@std@@@google@@@google@@USetKey@56@U?$equal_to@I@2@V?$libc_allocator_with_realloc@U?$pair@$$CBIPAUgoogle_object@@@std@@@6@@google@@QAEAAU01@XZ ; google::dense_hashtable_const_iterator<std::pair<unsigned int const ,google_object *>,unsigned int,cpp_tommy_inthash_u32,google::dense_hash_map<unsigned int,google_object *,cpp_tommy_inthash_u32,std::equal_to<unsigned int>,google::libc_allocator_with_realloc<std::pair<unsigned int const ,google_object *> > >::SelectKey,google::dense_hash_map<unsigned int,google_object *,cpp_tommy_inthash_u32,std::equal_to<unsigned int>,google::libc_allocator_with_realloc<std::pair<unsigned int const ,google_object *> > >::SetKey,std::equal_to<unsigned int>,google::libc_allocator_with_realloc<std::pair<unsigned int const ,google_object *> > >::operator++
PUBLIC	??9?$dense_hashtable_const_iterator@U?$pair@$$CBIPAUgoogle_object@@@std@@IVcpp_tommy_inthash_u32@@USelectKey@?$dense_hash_map@IPAUgoogle_object@@Vcpp_tommy_inthash_u32@@U?$equal_to@I@std@@V?$libc_allocator_with_realloc@U?$pair@$$CBIPAUgoogle_object@@@std@@@google@@@google@@USetKey@56@U?$equal_to@I@2@V?$libc_allocator_with_realloc@U?$pair@$$CBIPAUgoogle_object@@@std@@@6@@google@@QBE_NABU01@@Z ; google::dense_hashtable_const_iterator<std::pair<unsigned int const ,google_object *>,unsigned int,cpp_tommy_inthash_u32,google::dense_hash_map<unsigned int,google_object *,cpp_tommy_inthash_u32,std::equal_to<unsigned int>,google::libc_allocator_with_realloc<std::pair<unsigned int const ,google_object *> > >::SelectKey,google::dense_hash_map<unsigned int,google_object *,cpp_tommy_inthash_u32,std::equal_to<unsigned int>,google::libc_allocator_with_realloc<std::pair<unsigned int const ,google_object *> > >::SetKey,std::equal_to<unsigned int>,google::libc_allocator_with_realloc<std::pair<unsigned int const ,google_object *> > >::operator!=
PUBLIC	?copy_from@?$dense_hashtable@U?$pair@$$CBIPAUgoogle_object@@@std@@IVcpp_tommy_inthash_u32@@USelectKey@?$dense_hash_map@IPAUgoogle_object@@Vcpp_tommy_inthash_u32@@U?$equal_to@I@std@@V?$libc_allocator_with_realloc@U?$pair@$$CBIPAUgoogle_object@@@std@@@google@@@google@@USetKey@56@U?$equal_to@I@2@V?$libc_allocator_with_realloc@U?$pair@$$CBIPAUgoogle_object@@@std@@@6@@google@@AAEXABV12@I@Z ; google::dense_hashtable<std::pair<unsigned int const ,google_object *>,unsigned int,cpp_tommy_inthash_u32,google::dense_hash_map<unsigned int,google_object *,cpp_tommy_inthash_u32,std::equal_to<unsigned int>,google::libc_allocator_with_realloc<std::pair<unsigned int const ,google_object *> > >::SelectKey,google::dense_hash_map<unsigned int,google_object *,cpp_tommy_inthash_u32,std::equal_to<unsigned int>,google::libc_allocator_with_realloc<std::pair<unsigned int const ,google_object *> > >::SetKey,std::equal_to<unsigned int>,google::libc_allocator_with_realloc<std::pair<unsigned int const ,google_object *> > >::copy_from
PUBLIC	?use_empty@?$sh_hashtable_settings@IVcpp_tommy_inthash_u32@@I$03@@QBE_NXZ ; sh_hashtable_settings<unsigned int,cpp_tommy_inthash_u32,unsigned int,4>::use_empty
PUBLIC	??0?$libc_allocator_with_realloc@U?$pair@$$CBIPAUgoogle_object@@@std@@@google@@QAE@ABV01@@Z ; google::libc_allocator_with_realloc<std::pair<unsigned int const ,google_object *> >::libc_allocator_with_realloc<std::pair<unsigned int const ,google_object *> >
PUBLIC	??0?$alloc_impl@V?$libc_allocator_with_realloc@U?$pair@$$CBIPAUgoogle_object@@@std@@@google@@@?$dense_hashtable@U?$pair@$$CBIPAUgoogle_object@@@std@@IVcpp_tommy_inthash_u32@@USelectKey@?$dense_hash_map@IPAUgoogle_object@@Vcpp_tommy_inthash_u32@@U?$equal_to@I@std@@V?$libc_allocator_with_realloc@U?$pair@$$CBIPAUgoogle_object@@@std@@@google@@@google@@USetKey@56@U?$equal_to@I@2@V?$libc_allocator_with_realloc@U?$pair@$$CBIPAUgoogle_object@@@std@@@6@@google@@QAE@ABV012@@Z ; google::dense_hashtable<std::pair<unsigned int const ,google_object *>,unsigned int,cpp_tommy_inthash_u32,google::dense_hash_map<unsigned int,google_object *,cpp_tommy_inthash_u32,std::equal_to<unsigned int>,google::libc_allocator_with_realloc<std::pair<unsigned int const ,google_object *> > >::SelectKey,google::dense_hash_map<unsigned int,google_object *,cpp_tommy_inthash_u32,std::equal_to<unsigned int>,google::libc_allocator_with_realloc<std::pair<unsigned int const ,google_object *> > >::SetKey,std::equal_to<unsigned int>,google::libc_allocator_with_realloc<std::pair<unsigned int const ,google_object *> > >::alloc_impl<google::libc_allocator_with_realloc<std::pair<unsigned int const ,google_object *> > >::alloc_impl<google::libc_allocator_with_realloc<std::pair<unsigned int const ,google_object *> > >
PUBLIC	??0ValInfo@?$dense_hashtable@U?$pair@$$CBIPAUgoogle_object@@@std@@IVcpp_tommy_inthash_u32@@USelectKey@?$dense_hash_map@IPAUgoogle_object@@Vcpp_tommy_inthash_u32@@U?$equal_to@I@std@@V?$libc_allocator_with_realloc@U?$pair@$$CBIPAUgoogle_object@@@std@@@google@@@google@@USetKey@56@U?$equal_to@I@2@V?$libc_allocator_with_realloc@U?$pair@$$CBIPAUgoogle_object@@@std@@@6@@google@@QAE@ABV012@@Z ; google::dense_hashtable<std::pair<unsigned int const ,google_object *>,unsigned int,cpp_tommy_inthash_u32,google::dense_hash_map<unsigned int,google_object *,cpp_tommy_inthash_u32,std::equal_to<unsigned int>,google::libc_allocator_with_realloc<std::pair<unsigned int const ,google_object *> > >::SelectKey,google::dense_hash_map<unsigned int,google_object *,cpp_tommy_inthash_u32,std::equal_to<unsigned int>,google::libc_allocator_with_realloc<std::pair<unsigned int const ,google_object *> > >::SetKey,std::equal_to<unsigned int>,google::libc_allocator_with_realloc<std::pair<unsigned int const ,google_object *> > >::ValInfo::ValInfo
PUBLIC	??0?$dense_hashtable@U?$pair@$$CBIPAUgoogle_object@@@std@@IVcpp_tommy_inthash_u32@@USelectKey@?$dense_hash_map@IPAUgoogle_object@@Vcpp_tommy_inthash_u32@@U?$equal_to@I@std@@V?$libc_allocator_with_realloc@U?$pair@$$CBIPAUgoogle_object@@@std@@@google@@@google@@USetKey@56@U?$equal_to@I@2@V?$libc_allocator_with_realloc@U?$pair@$$CBIPAUgoogle_object@@@std@@@6@@google@@QAE@ABV01@I@Z ; google::dense_hashtable<std::pair<unsigned int const ,google_object *>,unsigned int,cpp_tommy_inthash_u32,google::dense_hash_map<unsigned int,google_object *,cpp_tommy_inthash_u32,std::equal_to<unsigned int>,google::libc_allocator_with_realloc<std::pair<unsigned int const ,google_object *> > >::SelectKey,google::dense_hash_map<unsigned int,google_object *,cpp_tommy_inthash_u32,std::equal_to<unsigned int>,google::libc_allocator_with_realloc<std::pair<unsigned int const ,google_object *> > >::SetKey,std::equal_to<unsigned int>,google::libc_allocator_with_realloc<std::pair<unsigned int const ,google_object *> > >::dense_hashtable<std::pair<unsigned int const ,google_object *>,unsigned int,cpp_tommy_inthash_u32,google::dense_hash_map<unsigned int,google_object *,cpp_tommy_inthash_u32,std::equal_to<unsigned int>,google::libc_allocator_with_realloc<std::pair<unsigned int const ,google_object *> > >::SelectKey,google::dense_hash_map<unsigned int,google_object *,cpp_tommy_inthash_u32,std::equal_to<unsigned int>,google::libc_allocator_with_realloc<std::pair<unsigned int const ,google_object *> > >::SetKey,std::equal_to<unsigned int>,google::libc_allocator_with_realloc<std::pair<unsigned int const ,google_object *> > >
PUBLIC	?deallocate@?$libc_allocator_with_realloc@U?$pair@$$CBIPAUgoogle_object@@@std@@@google@@QAEXPAU?$pair@$$CBIPAUgoogle_object@@@std@@I@Z ; google::libc_allocator_with_realloc<std::pair<unsigned int const ,google_object *> >::deallocate
PUBLIC	?destroy_buckets@?$dense_hashtable@U?$pair@$$CBIPAUgoogle_object@@@std@@IVcpp_tommy_inthash_u32@@USelectKey@?$dense_hash_map@IPAUgoogle_object@@Vcpp_tommy_inthash_u32@@U?$equal_to@I@std@@V?$libc_allocator_with_realloc@U?$pair@$$CBIPAUgoogle_object@@@std@@@google@@@google@@USetKey@56@U?$equal_to@I@2@V?$libc_allocator_with_realloc@U?$pair@$$CBIPAUgoogle_object@@@std@@@6@@google@@AAEXII@Z ; google::dense_hashtable<std::pair<unsigned int const ,google_object *>,unsigned int,cpp_tommy_inthash_u32,google::dense_hash_map<unsigned int,google_object *,cpp_tommy_inthash_u32,std::equal_to<unsigned int>,google::libc_allocator_with_realloc<std::pair<unsigned int const ,google_object *> > >::SelectKey,google::dense_hash_map<unsigned int,google_object *,cpp_tommy_inthash_u32,std::equal_to<unsigned int>,google::libc_allocator_with_realloc<std::pair<unsigned int const ,google_object *> > >::SetKey,std::equal_to<unsigned int>,google::libc_allocator_with_realloc<std::pair<unsigned int const ,google_object *> > >::destroy_buckets
PUBLIC	??1?$libc_allocator_with_realloc@U?$pair@$$CBIPAUgoogle_object@@@std@@@google@@QAE@XZ ; google::libc_allocator_with_realloc<std::pair<unsigned int const ,google_object *> >::~libc_allocator_with_realloc<std::pair<unsigned int const ,google_object *> >
PUBLIC	??1?$alloc_impl@V?$libc_allocator_with_realloc@U?$pair@$$CBIPAUgoogle_object@@@std@@@google@@@?$dense_hashtable@U?$pair@$$CBIPAUgoogle_object@@@std@@IVcpp_tommy_inthash_u32@@USelectKey@?$dense_hash_map@IPAUgoogle_object@@Vcpp_tommy_inthash_u32@@U?$equal_to@I@std@@V?$libc_allocator_with_realloc@U?$pair@$$CBIPAUgoogle_object@@@std@@@google@@@google@@USetKey@56@U?$equal_to@I@2@V?$libc_allocator_with_realloc@U?$pair@$$CBIPAUgoogle_object@@@std@@@6@@google@@QAE@XZ ; google::dense_hashtable<std::pair<unsigned int const ,google_object *>,unsigned int,cpp_tommy_inthash_u32,google::dense_hash_map<unsigned int,google_object *,cpp_tommy_inthash_u32,std::equal_to<unsigned int>,google::libc_allocator_with_realloc<std::pair<unsigned int const ,google_object *> > >::SelectKey,google::dense_hash_map<unsigned int,google_object *,cpp_tommy_inthash_u32,std::equal_to<unsigned int>,google::libc_allocator_with_realloc<std::pair<unsigned int const ,google_object *> > >::SetKey,std::equal_to<unsigned int>,google::libc_allocator_with_realloc<std::pair<unsigned int const ,google_object *> > >::alloc_impl<google::libc_allocator_with_realloc<std::pair<unsigned int const ,google_object *> > >::~alloc_impl<google::libc_allocator_with_realloc<std::pair<unsigned int const ,google_object *> > >
PUBLIC	??1ValInfo@?$dense_hashtable@U?$pair@$$CBIPAUgoogle_object@@@std@@IVcpp_tommy_inthash_u32@@USelectKey@?$dense_hash_map@IPAUgoogle_object@@Vcpp_tommy_inthash_u32@@U?$equal_to@I@std@@V?$libc_allocator_with_realloc@U?$pair@$$CBIPAUgoogle_object@@@std@@@google@@@google@@USetKey@56@U?$equal_to@I@2@V?$libc_allocator_with_realloc@U?$pair@$$CBIPAUgoogle_object@@@std@@@6@@google@@QAE@XZ ; google::dense_hashtable<std::pair<unsigned int const ,google_object *>,unsigned int,cpp_tommy_inthash_u32,google::dense_hash_map<unsigned int,google_object *,cpp_tommy_inthash_u32,std::equal_to<unsigned int>,google::libc_allocator_with_realloc<std::pair<unsigned int const ,google_object *> > >::SelectKey,google::dense_hash_map<unsigned int,google_object *,cpp_tommy_inthash_u32,std::equal_to<unsigned int>,google::libc_allocator_with_realloc<std::pair<unsigned int const ,google_object *> > >::SetKey,std::equal_to<unsigned int>,google::libc_allocator_with_realloc<std::pair<unsigned int const ,google_object *> > >::ValInfo::~ValInfo
PUBLIC	??1?$dense_hashtable@U?$pair@$$CBIPAUgoogle_object@@@std@@IVcpp_tommy_inthash_u32@@USelectKey@?$dense_hash_map@IPAUgoogle_object@@Vcpp_tommy_inthash_u32@@U?$equal_to@I@std@@V?$libc_allocator_with_realloc@U?$pair@$$CBIPAUgoogle_object@@@std@@@google@@@google@@USetKey@56@U?$equal_to@I@2@V?$libc_allocator_with_realloc@U?$pair@$$CBIPAUgoogle_object@@@std@@@6@@google@@QAE@XZ ; google::dense_hashtable<std::pair<unsigned int const ,google_object *>,unsigned int,cpp_tommy_inthash_u32,google::dense_hash_map<unsigned int,google_object *,cpp_tommy_inthash_u32,std::equal_to<unsigned int>,google::libc_allocator_with_realloc<std::pair<unsigned int const ,google_object *> > >::SelectKey,google::dense_hash_map<unsigned int,google_object *,cpp_tommy_inthash_u32,std::equal_to<unsigned int>,google::libc_allocator_with_realloc<std::pair<unsigned int const ,google_object *> > >::SetKey,std::equal_to<unsigned int>,google::libc_allocator_with_realloc<std::pair<unsigned int const ,google_object *> > >::~dense_hashtable<std::pair<unsigned int const ,google_object *>,unsigned int,cpp_tommy_inthash_u32,google::dense_hash_map<unsigned int,google_object *,cpp_tommy_inthash_u32,std::equal_to<unsigned int>,google::libc_allocator_with_realloc<std::pair<unsigned int const ,google_object *> > >::SelectKey,google::dense_hash_map<unsigned int,google_object *,cpp_tommy_inthash_u32,std::equal_to<unsigned int>,google::libc_allocator_with_realloc<std::pair<unsigned int const ,google_object *> > >::SetKey,std::equal_to<unsigned int>,google::libc_allocator_with_realloc<std::pair<unsigned int const ,google_object *> > >
PUBLIC	??0?$_Pair_base@$$CBIPAUgoogle_object@@@std@@QAE@ABU01@@Z ; std::_Pair_base<unsigned int const ,google_object *>::_Pair_base<unsigned int const ,google_object *>
PUBLIC	??0?$pair@$$CBIPAUgoogle_object@@@std@@QAE@ABU01@@Z ; std::pair<unsigned int const ,google_object *>::pair<unsigned int const ,google_object *>
PUBLIC	?set_value@?$dense_hashtable@U?$pair@$$CBIPAUgoogle_object@@@std@@IVcpp_tommy_inthash_u32@@USelectKey@?$dense_hash_map@IPAUgoogle_object@@Vcpp_tommy_inthash_u32@@U?$equal_to@I@std@@V?$libc_allocator_with_realloc@U?$pair@$$CBIPAUgoogle_object@@@std@@@google@@@google@@USetKey@56@U?$equal_to@I@2@V?$libc_allocator_with_realloc@U?$pair@$$CBIPAUgoogle_object@@@std@@@6@@google@@AAEXPAU?$pair@$$CBIPAUgoogle_object@@@std@@ABU34@@Z ; google::dense_hashtable<std::pair<unsigned int const ,google_object *>,unsigned int,cpp_tommy_inthash_u32,google::dense_hash_map<unsigned int,google_object *,cpp_tommy_inthash_u32,std::equal_to<unsigned int>,google::libc_allocator_with_realloc<std::pair<unsigned int const ,google_object *> > >::SelectKey,google::dense_hash_map<unsigned int,google_object *,cpp_tommy_inthash_u32,std::equal_to<unsigned int>,google::libc_allocator_with_realloc<std::pair<unsigned int const ,google_object *> > >::SetKey,std::equal_to<unsigned int>,google::libc_allocator_with_realloc<std::pair<unsigned int const ,google_object *> > >::set_value
PUBLIC	?set_enlarge_threshold@?$sh_hashtable_settings@IVcpp_tommy_inthash_u32@@I$03@@QAEXI@Z ; sh_hashtable_settings<unsigned int,cpp_tommy_inthash_u32,unsigned int,4>::set_enlarge_threshold
PUBLIC	?set_shrink_threshold@?$sh_hashtable_settings@IVcpp_tommy_inthash_u32@@I$03@@QAEXI@Z ; sh_hashtable_settings<unsigned int,cpp_tommy_inthash_u32,unsigned int,4>::set_shrink_threshold
PUBLIC	?enlarge_size@?$sh_hashtable_settings@IVcpp_tommy_inthash_u32@@I$03@@QBEII@Z ; sh_hashtable_settings<unsigned int,cpp_tommy_inthash_u32,unsigned int,4>::enlarge_size
PUBLIC	?reset_thresholds@?$sh_hashtable_settings@IVcpp_tommy_inthash_u32@@I$03@@QAEXI@Z ; sh_hashtable_settings<unsigned int,cpp_tommy_inthash_u32,unsigned int,4>::reset_thresholds
PUBLIC	??$_Move@AAUSettings@?$dense_hashtable@U?$pair@$$CBIPAUgoogle_object@@@std@@IVcpp_tommy_inthash_u32@@USelectKey@?$dense_hash_map@IPAUgoogle_object@@Vcpp_tommy_inthash_u32@@U?$equal_to@I@std@@V?$libc_allocator_with_realloc@U?$pair@$$CBIPAUgoogle_object@@@std@@@google@@@google@@USetKey@56@U?$equal_to@I@2@V?$libc_allocator_with_realloc@U?$pair@$$CBIPAUgoogle_object@@@std@@@6@@google@@@std@@YA$$QAUSettings@?$dense_hashtable@U?$pair@$$CBIPAUgoogle_object@@@std@@IVcpp_tommy_inthash_u32@@USelectKey@?$dense_hash_map@IPAUgoogle_object@@Vcpp_tommy_inthash_u32@@U?$equal_to@I@std@@V?$libc_allocator_with_realloc@U?$pair@$$CBIPAUgoogle_object@@@std@@@google@@@google@@USetKey@56@U?$equal_to@I@2@V?$libc_allocator_with_realloc@U?$pair@$$CBIPAUgoogle_object@@@std@@@6@@google@@AAU123@@Z ; std::_Move<google::dense_hashtable<std::pair<unsigned int const ,google_object *>,unsigned int,cpp_tommy_inthash_u32,google::dense_hash_map<unsigned int,google_object *,cpp_tommy_inthash_u32,std::equal_to<unsigned int>,google::libc_allocator_with_realloc<std::pair<unsigned int const ,google_object *> > >::SelectKey,google::dense_hash_map<unsigned int,google_object *,cpp_tommy_inthash_u32,std::equal_to<unsigned int>,google::libc_allocator_with_realloc<std::pair<unsigned int const ,google_object *> > >::SetKey,std::equal_to<unsigned int>,google::libc_allocator_with_realloc<std::pair<unsigned int const ,google_object *> > >::Settings &>
PUBLIC	??$swap@USettings@?$dense_hashtable@U?$pair@$$CBIPAUgoogle_object@@@std@@IVcpp_tommy_inthash_u32@@USelectKey@?$dense_hash_map@IPAUgoogle_object@@Vcpp_tommy_inthash_u32@@U?$equal_to@I@std@@V?$libc_allocator_with_realloc@U?$pair@$$CBIPAUgoogle_object@@@std@@@google@@@google@@USetKey@56@U?$equal_to@I@2@V?$libc_allocator_with_realloc@U?$pair@$$CBIPAUgoogle_object@@@std@@@6@@google@@@std@@YAXAAUSettings@?$dense_hashtable@U?$pair@$$CBIPAUgoogle_object@@@std@@IVcpp_tommy_inthash_u32@@USelectKey@?$dense_hash_map@IPAUgoogle_object@@Vcpp_tommy_inthash_u32@@U?$equal_to@I@std@@V?$libc_allocator_with_realloc@U?$pair@$$CBIPAUgoogle_object@@@std@@@google@@@google@@USetKey@56@U?$equal_to@I@2@V?$libc_allocator_with_realloc@U?$pair@$$CBIPAUgoogle_object@@@std@@@6@@google@@0@Z ; std::swap<google::dense_hashtable<std::pair<unsigned int const ,google_object *>,unsigned int,cpp_tommy_inthash_u32,google::dense_hash_map<unsigned int,google_object *,cpp_tommy_inthash_u32,std::equal_to<unsigned int>,google::libc_allocator_with_realloc<std::pair<unsigned int const ,google_object *> > >::SelectKey,google::dense_hash_map<unsigned int,google_object *,cpp_tommy_inthash_u32,std::equal_to<unsigned int>,google::libc_allocator_with_realloc<std::pair<unsigned int const ,google_object *> > >::SetKey,std::equal_to<unsigned int>,google::libc_allocator_with_realloc<std::pair<unsigned int const ,google_object *> > >::Settings>
PUBLIC	??$_Move@AAVKeyInfo@?$dense_hashtable@U?$pair@$$CBIPAUgoogle_object@@@std@@IVcpp_tommy_inthash_u32@@USelectKey@?$dense_hash_map@IPAUgoogle_object@@Vcpp_tommy_inthash_u32@@U?$equal_to@I@std@@V?$libc_allocator_with_realloc@U?$pair@$$CBIPAUgoogle_object@@@std@@@google@@@google@@USetKey@56@U?$equal_to@I@2@V?$libc_allocator_with_realloc@U?$pair@$$CBIPAUgoogle_object@@@std@@@6@@google@@@std@@YA$$QAVKeyInfo@?$dense_hashtable@U?$pair@$$CBIPAUgoogle_object@@@std@@IVcpp_tommy_inthash_u32@@USelectKey@?$dense_hash_map@IPAUgoogle_object@@Vcpp_tommy_inthash_u32@@U?$equal_to@I@std@@V?$libc_allocator_with_realloc@U?$pair@$$CBIPAUgoogle_object@@@std@@@google@@@google@@USetKey@56@U?$equal_to@I@2@V?$libc_allocator_with_realloc@U?$pair@$$CBIPAUgoogle_object@@@std@@@6@@google@@AAV123@@Z ; std::_Move<google::dense_hashtable<std::pair<unsigned int const ,google_object *>,unsigned int,cpp_tommy_inthash_u32,google::dense_hash_map<unsigned int,google_object *,cpp_tommy_inthash_u32,std::equal_to<unsigned int>,google::libc_allocator_with_realloc<std::pair<unsigned int const ,google_object *> > >::SelectKey,google::dense_hash_map<unsigned int,google_object *,cpp_tommy_inthash_u32,std::equal_to<unsigned int>,google::libc_allocator_with_realloc<std::pair<unsigned int const ,google_object *> > >::SetKey,std::equal_to<unsigned int>,google::libc_allocator_with_realloc<std::pair<unsigned int const ,google_object *> > >::KeyInfo &>
PUBLIC	??$swap@VKeyInfo@?$dense_hashtable@U?$pair@$$CBIPAUgoogle_object@@@std@@IVcpp_tommy_inthash_u32@@USelectKey@?$dense_hash_map@IPAUgoogle_object@@Vcpp_tommy_inthash_u32@@U?$equal_to@I@std@@V?$libc_allocator_with_realloc@U?$pair@$$CBIPAUgoogle_object@@@std@@@google@@@google@@USetKey@56@U?$equal_to@I@2@V?$libc_allocator_with_realloc@U?$pair@$$CBIPAUgoogle_object@@@std@@@6@@google@@@std@@YAXAAVKeyInfo@?$dense_hashtable@U?$pair@$$CBIPAUgoogle_object@@@std@@IVcpp_tommy_inthash_u32@@USelectKey@?$dense_hash_map@IPAUgoogle_object@@Vcpp_tommy_inthash_u32@@U?$equal_to@I@std@@V?$libc_allocator_with_realloc@U?$pair@$$CBIPAUgoogle_object@@@std@@@google@@@google@@USetKey@56@U?$equal_to@I@2@V?$libc_allocator_with_realloc@U?$pair@$$CBIPAUgoogle_object@@@std@@@6@@google@@0@Z ; std::swap<google::dense_hashtable<std::pair<unsigned int const ,google_object *>,unsigned int,cpp_tommy_inthash_u32,google::dense_hash_map<unsigned int,google_object *,cpp_tommy_inthash_u32,std::equal_to<unsigned int>,google::libc_allocator_with_realloc<std::pair<unsigned int const ,google_object *> > >::SelectKey,google::dense_hash_map<unsigned int,google_object *,cpp_tommy_inthash_u32,std::equal_to<unsigned int>,google::libc_allocator_with_realloc<std::pair<unsigned int const ,google_object *> > >::SetKey,std::equal_to<unsigned int>,google::libc_allocator_with_realloc<std::pair<unsigned int const ,google_object *> > >::KeyInfo>
PUBLIC	??$_Move@AAPAU?$pair@$$CBIPAUgoogle_object@@@std@@@std@@YA$$QAPAU?$pair@$$CBIPAUgoogle_object@@@0@AAPAU10@@Z ; std::_Move<std::pair<unsigned int const ,google_object *> * &>
PUBLIC	??$swap@PAU?$pair@$$CBIPAUgoogle_object@@@std@@@std@@YAXAAPAU?$pair@$$CBIPAUgoogle_object@@@0@0@Z ; std::swap<std::pair<unsigned int const ,google_object *> *>
PUBLIC	?swap@?$dense_hashtable@U?$pair@$$CBIPAUgoogle_object@@@std@@IVcpp_tommy_inthash_u32@@USelectKey@?$dense_hash_map@IPAUgoogle_object@@Vcpp_tommy_inthash_u32@@U?$equal_to@I@std@@V?$libc_allocator_with_realloc@U?$pair@$$CBIPAUgoogle_object@@@std@@@google@@@google@@USetKey@56@U?$equal_to@I@2@V?$libc_allocator_with_realloc@U?$pair@$$CBIPAUgoogle_object@@@std@@@6@@google@@QAEXAAV12@@Z ; google::dense_hashtable<std::pair<unsigned int const ,google_object *>,unsigned int,cpp_tommy_inthash_u32,google::dense_hash_map<unsigned int,google_object *,cpp_tommy_inthash_u32,std::equal_to<unsigned int>,google::libc_allocator_with_realloc<std::pair<unsigned int const ,google_object *> > >::SelectKey,google::dense_hash_map<unsigned int,google_object *,cpp_tommy_inthash_u32,std::equal_to<unsigned int>,google::libc_allocator_with_realloc<std::pair<unsigned int const ,google_object *> > >::SetKey,std::equal_to<unsigned int>,google::libc_allocator_with_realloc<std::pair<unsigned int const ,google_object *> > >::swap
PUBLIC	?enlarge_threshold@?$sh_hashtable_settings@IVcpp_tommy_inthash_u32@@I$03@@QBEIXZ ; sh_hashtable_settings<unsigned int,cpp_tommy_inthash_u32,unsigned int,4>::enlarge_threshold
PUBLIC	?shrink_size@?$sh_hashtable_settings@IVcpp_tommy_inthash_u32@@I$03@@QBEII@Z ; sh_hashtable_settings<unsigned int,cpp_tommy_inthash_u32,unsigned int,4>::shrink_size
PUBLIC	??0logic_error@std@@QAE@PBD@Z			; std::logic_error::logic_error
PUBLIC	??0length_error@std@@QAE@PBD@Z			; std::length_error::length_error
PUBLIC	?enlarge_factor@?$sh_hashtable_settings@IVcpp_tommy_inthash_u32@@I$03@@QBEMXZ ; sh_hashtable_settings<unsigned int,cpp_tommy_inthash_u32,unsigned int,4>::enlarge_factor
PUBLIC	?min_buckets@?$sh_hashtable_settings@IVcpp_tommy_inthash_u32@@I$03@@QAEIII@Z ; sh_hashtable_settings<unsigned int,cpp_tommy_inthash_u32,unsigned int,4>::min_buckets
PUBLIC	??1length_error@std@@UAE@XZ			; std::length_error::~length_error
PUBLIC	??_Glength_error@std@@UAEPAXI@Z			; std::length_error::`scalar deleting destructor'
PUBLIC	??0length_error@std@@QAE@ABV01@@Z		; std::length_error::length_error
PUBLIC	??1logic_error@std@@UAE@XZ			; std::logic_error::~logic_error
PUBLIC	??_Glogic_error@std@@UAEPAXI@Z			; std::logic_error::`scalar deleting destructor'
PUBLIC	??0logic_error@std@@QAE@ABV01@@Z		; std::logic_error::logic_error
PUBLIC	?resize_delta@?$dense_hashtable@U?$pair@$$CBIPAUgoogle_object@@@std@@IVcpp_tommy_inthash_u32@@USelectKey@?$dense_hash_map@IPAUgoogle_object@@Vcpp_tommy_inthash_u32@@U?$equal_to@I@std@@V?$libc_allocator_with_realloc@U?$pair@$$CBIPAUgoogle_object@@@std@@@google@@@google@@USetKey@56@U?$equal_to@I@2@V?$libc_allocator_with_realloc@U?$pair@$$CBIPAUgoogle_object@@@std@@@6@@google@@AAE_NI@Z ; google::dense_hashtable<std::pair<unsigned int const ,google_object *>,unsigned int,cpp_tommy_inthash_u32,google::dense_hash_map<unsigned int,google_object *,cpp_tommy_inthash_u32,std::equal_to<unsigned int>,google::libc_allocator_with_realloc<std::pair<unsigned int const ,google_object *> > >::SelectKey,google::dense_hash_map<unsigned int,google_object *,cpp_tommy_inthash_u32,std::equal_to<unsigned int>,google::libc_allocator_with_realloc<std::pair<unsigned int const ,google_object *> > >::SetKey,std::equal_to<unsigned int>,google::libc_allocator_with_realloc<std::pair<unsigned int const ,google_object *> > >::resize_delta
PUBLIC	?consider_shrink@?$sh_hashtable_settings@IVcpp_tommy_inthash_u32@@I$03@@QBE_NXZ ; sh_hashtable_settings<unsigned int,cpp_tommy_inthash_u32,unsigned int,4>::consider_shrink
PUBLIC	?resize@?$dense_hashtable@U?$pair@$$CBIPAUgoogle_object@@@std@@IVcpp_tommy_inthash_u32@@USelectKey@?$dense_hash_map@IPAUgoogle_object@@Vcpp_tommy_inthash_u32@@U?$equal_to@I@std@@V?$libc_allocator_with_realloc@U?$pair@$$CBIPAUgoogle_object@@@std@@@google@@@google@@USetKey@56@U?$equal_to@I@2@V?$libc_allocator_with_realloc@U?$pair@$$CBIPAUgoogle_object@@@std@@@6@@google@@QAEXI@Z ; google::dense_hashtable<std::pair<unsigned int const ,google_object *>,unsigned int,cpp_tommy_inthash_u32,google::dense_hash_map<unsigned int,google_object *,cpp_tommy_inthash_u32,std::equal_to<unsigned int>,google::libc_allocator_with_realloc<std::pair<unsigned int const ,google_object *> > >::SelectKey,google::dense_hash_map<unsigned int,google_object *,cpp_tommy_inthash_u32,std::equal_to<unsigned int>,google::libc_allocator_with_realloc<std::pair<unsigned int const ,google_object *> > >::SetKey,std::equal_to<unsigned int>,google::libc_allocator_with_realloc<std::pair<unsigned int const ,google_object *> > >::resize
PUBLIC	?resize@?$dense_hash_map@IPAUgoogle_object@@Vcpp_tommy_inthash_u32@@U?$equal_to@I@std@@V?$libc_allocator_with_realloc@U?$pair@$$CBIPAUgoogle_object@@@std@@@google@@@google@@QAEXI@Z ; google::dense_hash_map<unsigned int,google_object *,cpp_tommy_inthash_u32,std::equal_to<unsigned int>,google::libc_allocator_with_realloc<std::pair<unsigned int const ,google_object *> > >::resize
PUBLIC	?size@?$dense_hashtable@U?$pair@$$CBIPAUgoogle_object@@@std@@IVcpp_tommy_inthash_u32@@USelectKey@?$dense_hash_map@IPAUgoogle_object@@Vcpp_tommy_inthash_u32@@U?$equal_to@I@std@@V?$libc_allocator_with_realloc@U?$pair@$$CBIPAUgoogle_object@@@std@@@google@@@google@@USetKey@56@U?$equal_to@I@2@V?$libc_allocator_with_realloc@U?$pair@$$CBIPAUgoogle_object@@@std@@@6@@google@@QBEIXZ ; google::dense_hashtable<std::pair<unsigned int const ,google_object *>,unsigned int,cpp_tommy_inthash_u32,google::dense_hash_map<unsigned int,google_object *,cpp_tommy_inthash_u32,std::equal_to<unsigned int>,google::libc_allocator_with_realloc<std::pair<unsigned int const ,google_object *> > >::SelectKey,google::dense_hash_map<unsigned int,google_object *,cpp_tommy_inthash_u32,std::equal_to<unsigned int>,google::libc_allocator_with_realloc<std::pair<unsigned int const ,google_object *> > >::SetKey,std::equal_to<unsigned int>,google::libc_allocator_with_realloc<std::pair<unsigned int const ,google_object *> > >::size
PUBLIC	?test_deleted@?$dense_hashtable@U?$pair@$$CBIPAUgoogle_object@@@std@@IVcpp_tommy_inthash_u32@@USelectKey@?$dense_hash_map@IPAUgoogle_object@@Vcpp_tommy_inthash_u32@@U?$equal_to@I@std@@V?$libc_allocator_with_realloc@U?$pair@$$CBIPAUgoogle_object@@@std@@@google@@@google@@USetKey@56@U?$equal_to@I@2@V?$libc_allocator_with_realloc@U?$pair@$$CBIPAUgoogle_object@@@std@@@6@@google@@QBE_NI@Z ; google::dense_hashtable<std::pair<unsigned int const ,google_object *>,unsigned int,cpp_tommy_inthash_u32,google::dense_hash_map<unsigned int,google_object *,cpp_tommy_inthash_u32,std::equal_to<unsigned int>,google::libc_allocator_with_realloc<std::pair<unsigned int const ,google_object *> > >::SelectKey,google::dense_hash_map<unsigned int,google_object *,cpp_tommy_inthash_u32,std::equal_to<unsigned int>,google::libc_allocator_with_realloc<std::pair<unsigned int const ,google_object *> > >::SetKey,std::equal_to<unsigned int>,google::libc_allocator_with_realloc<std::pair<unsigned int const ,google_object *> > >::test_deleted
PUBLIC	?test_empty@?$dense_hashtable@U?$pair@$$CBIPAUgoogle_object@@@std@@IVcpp_tommy_inthash_u32@@USelectKey@?$dense_hash_map@IPAUgoogle_object@@Vcpp_tommy_inthash_u32@@U?$equal_to@I@std@@V?$libc_allocator_with_realloc@U?$pair@$$CBIPAUgoogle_object@@@std@@@google@@@google@@USetKey@56@U?$equal_to@I@2@V?$libc_allocator_with_realloc@U?$pair@$$CBIPAUgoogle_object@@@std@@@6@@google@@QBE_NI@Z ; google::dense_hashtable<std::pair<unsigned int const ,google_object *>,unsigned int,cpp_tommy_inthash_u32,google::dense_hash_map<unsigned int,google_object *,cpp_tommy_inthash_u32,std::equal_to<unsigned int>,google::libc_allocator_with_realloc<std::pair<unsigned int const ,google_object *> > >::SelectKey,google::dense_hash_map<unsigned int,google_object *,cpp_tommy_inthash_u32,std::equal_to<unsigned int>,google::libc_allocator_with_realloc<std::pair<unsigned int const ,google_object *> > >::SetKey,std::equal_to<unsigned int>,google::libc_allocator_with_realloc<std::pair<unsigned int const ,google_object *> > >::test_empty
PUBLIC	?hash@?$sh_hashtable_settings@IVcpp_tommy_inthash_u32@@I$03@@QBEIABI@Z ; sh_hashtable_settings<unsigned int,cpp_tommy_inthash_u32,unsigned int,4>::hash
PUBLIC	?hash@?$dense_hashtable@U?$pair@$$CBIPAUgoogle_object@@@std@@IVcpp_tommy_inthash_u32@@USelectKey@?$dense_hash_map@IPAUgoogle_object@@Vcpp_tommy_inthash_u32@@U?$equal_to@I@std@@V?$libc_allocator_with_realloc@U?$pair@$$CBIPAUgoogle_object@@@std@@@google@@@google@@USetKey@56@U?$equal_to@I@2@V?$libc_allocator_with_realloc@U?$pair@$$CBIPAUgoogle_object@@@std@@@6@@google@@ABEIABI@Z ; google::dense_hashtable<std::pair<unsigned int const ,google_object *>,unsigned int,cpp_tommy_inthash_u32,google::dense_hash_map<unsigned int,google_object *,cpp_tommy_inthash_u32,std::equal_to<unsigned int>,google::libc_allocator_with_realloc<std::pair<unsigned int const ,google_object *> > >::SelectKey,google::dense_hash_map<unsigned int,google_object *,cpp_tommy_inthash_u32,std::equal_to<unsigned int>,google::libc_allocator_with_realloc<std::pair<unsigned int const ,google_object *> > >::SetKey,std::equal_to<unsigned int>,google::libc_allocator_with_realloc<std::pair<unsigned int const ,google_object *> > >::hash
PUBLIC	??$?0ABIAAI@?$_Pair_base@II@std@@QAE@ABIAAI@Z	; std::_Pair_base<unsigned int,unsigned int>::_Pair_base<unsigned int,unsigned int><unsigned int const &,unsigned int &>
PUBLIC	??$?0ABIAAI@?$pair@II@std@@QAE@ABIAAI@Z		; std::pair<unsigned int,unsigned int>::pair<unsigned int,unsigned int><unsigned int const &,unsigned int &>
PUBLIC	??$forward@ABI@std@@YAABIABI@Z			; std::forward<unsigned int const &>
PUBLIC	??$forward@AAI@std@@YAAAIAAI@Z			; std::forward<unsigned int &>
PUBLIC	??$?0AAIABI@?$_Pair_base@II@std@@QAE@AAIABI@Z	; std::_Pair_base<unsigned int,unsigned int>::_Pair_base<unsigned int,unsigned int><unsigned int &,unsigned int const &>
PUBLIC	??$?0AAIABI@?$pair@II@std@@QAE@AAIABI@Z		; std::pair<unsigned int,unsigned int>::pair<unsigned int,unsigned int><unsigned int &,unsigned int const &>
PUBLIC	?find_position@?$dense_hashtable@U?$pair@$$CBIPAUgoogle_object@@@std@@IVcpp_tommy_inthash_u32@@USelectKey@?$dense_hash_map@IPAUgoogle_object@@Vcpp_tommy_inthash_u32@@U?$equal_to@I@std@@V?$libc_allocator_with_realloc@U?$pair@$$CBIPAUgoogle_object@@@std@@@google@@@google@@USetKey@56@U?$equal_to@I@2@V?$libc_allocator_with_realloc@U?$pair@$$CBIPAUgoogle_object@@@std@@@6@@google@@ABE?AU?$pair@II@std@@ABI@Z ; google::dense_hashtable<std::pair<unsigned int const ,google_object *>,unsigned int,cpp_tommy_inthash_u32,google::dense_hash_map<unsigned int,google_object *,cpp_tommy_inthash_u32,std::equal_to<unsigned int>,google::libc_allocator_with_realloc<std::pair<unsigned int const ,google_object *> > >::SelectKey,google::dense_hash_map<unsigned int,google_object *,cpp_tommy_inthash_u32,std::equal_to<unsigned int>,google::libc_allocator_with_realloc<std::pair<unsigned int const ,google_object *> > >::SetKey,std::equal_to<unsigned int>,google::libc_allocator_with_realloc<std::pair<unsigned int const ,google_object *> > >::find_position
PUBLIC	?find@?$dense_hashtable@U?$pair@$$CBIPAUgoogle_object@@@std@@IVcpp_tommy_inthash_u32@@USelectKey@?$dense_hash_map@IPAUgoogle_object@@Vcpp_tommy_inthash_u32@@U?$equal_to@I@std@@V?$libc_allocator_with_realloc@U?$pair@$$CBIPAUgoogle_object@@@std@@@google@@@google@@USetKey@56@U?$equal_to@I@2@V?$libc_allocator_with_realloc@U?$pair@$$CBIPAUgoogle_object@@@std@@@6@@google@@QAE?AU?$dense_hashtable_iterator@U?$pair@$$CBIPAUgoogle_object@@@std@@IVcpp_tommy_inthash_u32@@USelectKey@?$dense_hash_map@IPAUgoogle_object@@Vcpp_tommy_inthash_u32@@U?$equal_to@I@std@@V?$libc_allocator_with_realloc@U?$pair@$$CBIPAUgoogle_object@@@std@@@google@@@google@@USetKey@56@U?$equal_to@I@2@V?$libc_allocator_with_realloc@U?$pair@$$CBIPAUgoogle_object@@@std@@@6@@2@ABI@Z ; google::dense_hashtable<std::pair<unsigned int const ,google_object *>,unsigned int,cpp_tommy_inthash_u32,google::dense_hash_map<unsigned int,google_object *,cpp_tommy_inthash_u32,std::equal_to<unsigned int>,google::libc_allocator_with_realloc<std::pair<unsigned int const ,google_object *> > >::SelectKey,google::dense_hash_map<unsigned int,google_object *,cpp_tommy_inthash_u32,std::equal_to<unsigned int>,google::libc_allocator_with_realloc<std::pair<unsigned int const ,google_object *> > >::SetKey,std::equal_to<unsigned int>,google::libc_allocator_with_realloc<std::pair<unsigned int const ,google_object *> > >::find
PUBLIC	?find@?$dense_hash_map@IPAUgoogle_object@@Vcpp_tommy_inthash_u32@@U?$equal_to@I@std@@V?$libc_allocator_with_realloc@U?$pair@$$CBIPAUgoogle_object@@@std@@@google@@@google@@QAE?AU?$dense_hashtable_iterator@U?$pair@$$CBIPAUgoogle_object@@@std@@IVcpp_tommy_inthash_u32@@USelectKey@?$dense_hash_map@IPAUgoogle_object@@Vcpp_tommy_inthash_u32@@U?$equal_to@I@std@@V?$libc_allocator_with_realloc@U?$pair@$$CBIPAUgoogle_object@@@std@@@google@@@google@@USetKey@56@U?$equal_to@I@2@V?$libc_allocator_with_realloc@U?$pair@$$CBIPAUgoogle_object@@@std@@@6@@2@ABI@Z ; google::dense_hash_map<unsigned int,google_object *,cpp_tommy_inthash_u32,std::equal_to<unsigned int>,google::libc_allocator_with_realloc<std::pair<unsigned int const ,google_object *> > >::find
PUBLIC	?test_empty@?$dense_hashtable@U?$pair@$$CBIPAUgoogle_object@@@std@@IVcpp_tommy_inthash_u32@@USelectKey@?$dense_hash_map@IPAUgoogle_object@@Vcpp_tommy_inthash_u32@@U?$equal_to@I@std@@V?$libc_allocator_with_realloc@U?$pair@$$CBIPAUgoogle_object@@@std@@@google@@@google@@USetKey@56@U?$equal_to@I@2@V?$libc_allocator_with_realloc@U?$pair@$$CBIPAUgoogle_object@@@std@@@6@@google@@QBE_NABU?$dense_hashtable_iterator@U?$pair@$$CBIPAUgoogle_object@@@std@@IVcpp_tommy_inthash_u32@@USelectKey@?$dense_hash_map@IPAUgoogle_object@@Vcpp_tommy_inthash_u32@@U?$equal_to@I@std@@V?$libc_allocator_with_realloc@U?$pair@$$CBIPAUgoogle_object@@@std@@@google@@@google@@USetKey@56@U?$equal_to@I@2@V?$libc_allocator_with_realloc@U?$pair@$$CBIPAUgoogle_object@@@std@@@6@@2@@Z ; google::dense_hashtable<std::pair<unsigned int const ,google_object *>,unsigned int,cpp_tommy_inthash_u32,google::dense_hash_map<unsigned int,google_object *,cpp_tommy_inthash_u32,std::equal_to<unsigned int>,google::libc_allocator_with_realloc<std::pair<unsigned int const ,google_object *> > >::SelectKey,google::dense_hash_map<unsigned int,google_object *,cpp_tommy_inthash_u32,std::equal_to<unsigned int>,google::libc_allocator_with_realloc<std::pair<unsigned int const ,google_object *> > >::SetKey,std::equal_to<unsigned int>,google::libc_allocator_with_realloc<std::pair<unsigned int const ,google_object *> > >::test_empty
PUBLIC	?advance_past_empty_and_deleted@?$dense_hashtable_iterator@U?$pair@$$CBIPAUgoogle_object@@@std@@IVcpp_tommy_inthash_u32@@USelectKey@?$dense_hash_map@IPAUgoogle_object@@Vcpp_tommy_inthash_u32@@U?$equal_to@I@std@@V?$libc_allocator_with_realloc@U?$pair@$$CBIPAUgoogle_object@@@std@@@google@@@google@@USetKey@56@U?$equal_to@I@2@V?$libc_allocator_with_realloc@U?$pair@$$CBIPAUgoogle_object@@@std@@@6@@google@@QAEXXZ ; google::dense_hashtable_iterator<std::pair<unsigned int const ,google_object *>,unsigned int,cpp_tommy_inthash_u32,google::dense_hash_map<unsigned int,google_object *,cpp_tommy_inthash_u32,std::equal_to<unsigned int>,google::libc_allocator_with_realloc<std::pair<unsigned int const ,google_object *> > >::SelectKey,google::dense_hash_map<unsigned int,google_object *,cpp_tommy_inthash_u32,std::equal_to<unsigned int>,google::libc_allocator_with_realloc<std::pair<unsigned int const ,google_object *> > >::SetKey,std::equal_to<unsigned int>,google::libc_allocator_with_realloc<std::pair<unsigned int const ,google_object *> > >::advance_past_empty_and_deleted
PUBLIC	??0?$dense_hashtable_iterator@U?$pair@$$CBIPAUgoogle_object@@@std@@IVcpp_tommy_inthash_u32@@USelectKey@?$dense_hash_map@IPAUgoogle_object@@Vcpp_tommy_inthash_u32@@U?$equal_to@I@std@@V?$libc_allocator_with_realloc@U?$pair@$$CBIPAUgoogle_object@@@std@@@google@@@google@@USetKey@56@U?$equal_to@I@2@V?$libc_allocator_with_realloc@U?$pair@$$CBIPAUgoogle_object@@@std@@@6@@google@@QAE@PBV?$dense_hashtable@U?$pair@$$CBIPAUgoogle_object@@@std@@IVcpp_tommy_inthash_u32@@USelectKey@?$dense_hash_map@IPAUgoogle_object@@Vcpp_tommy_inthash_u32@@U?$equal_to@I@std@@V?$libc_allocator_with_realloc@U?$pair@$$CBIPAUgoogle_object@@@std@@@google@@@google@@USetKey@56@U?$equal_to@I@2@V?$libc_allocator_with_realloc@U?$pair@$$CBIPAUgoogle_object@@@std@@@6@@1@PAU?$pair@$$CBIPAUgoogle_object@@@std@@1_N@Z ; google::dense_hashtable_iterator<std::pair<unsigned int const ,google_object *>,unsigned int,cpp_tommy_inthash_u32,google::dense_hash_map<unsigned int,google_object *,cpp_tommy_inthash_u32,std::equal_to<unsigned int>,google::libc_allocator_with_realloc<std::pair<unsigned int const ,google_object *> > >::SelectKey,google::dense_hash_map<unsigned int,google_object *,cpp_tommy_inthash_u32,std::equal_to<unsigned int>,google::libc_allocator_with_realloc<std::pair<unsigned int const ,google_object *> > >::SetKey,std::equal_to<unsigned int>,google::libc_allocator_with_realloc<std::pair<unsigned int const ,google_object *> > >::dense_hashtable_iterator<std::pair<unsigned int const ,google_object *>,unsigned int,cpp_tommy_inthash_u32,google::dense_hash_map<unsigned int,google_object *,cpp_tommy_inthash_u32,std::equal_to<unsigned int>,google::libc_allocator_with_realloc<std::pair<unsigned int const ,google_object *> > >::SelectKey,google::dense_hash_map<unsigned int,google_object *,cpp_tommy_inthash_u32,std::equal_to<unsigned int>,google::libc_allocator_with_realloc<std::pair<unsigned int const ,google_object *> > >::SetKey,std::equal_to<unsigned int>,google::libc_allocator_with_realloc<std::pair<unsigned int const ,google_object *> > >
PUBLIC	?end@?$dense_hashtable@U?$pair@$$CBIPAUgoogle_object@@@std@@IVcpp_tommy_inthash_u32@@USelectKey@?$dense_hash_map@IPAUgoogle_object@@Vcpp_tommy_inthash_u32@@U?$equal_to@I@std@@V?$libc_allocator_with_realloc@U?$pair@$$CBIPAUgoogle_object@@@std@@@google@@@google@@USetKey@56@U?$equal_to@I@2@V?$libc_allocator_with_realloc@U?$pair@$$CBIPAUgoogle_object@@@std@@@6@@google@@QAE?AU?$dense_hashtable_iterator@U?$pair@$$CBIPAUgoogle_object@@@std@@IVcpp_tommy_inthash_u32@@USelectKey@?$dense_hash_map@IPAUgoogle_object@@Vcpp_tommy_inthash_u32@@U?$equal_to@I@std@@V?$libc_allocator_with_realloc@U?$pair@$$CBIPAUgoogle_object@@@std@@@google@@@google@@USetKey@56@U?$equal_to@I@2@V?$libc_allocator_with_realloc@U?$pair@$$CBIPAUgoogle_object@@@std@@@6@@2@XZ ; google::dense_hashtable<std::pair<unsigned int const ,google_object *>,unsigned int,cpp_tommy_inthash_u32,google::dense_hash_map<unsigned int,google_object *,cpp_tommy_inthash_u32,std::equal_to<unsigned int>,google::libc_allocator_with_realloc<std::pair<unsigned int const ,google_object *> > >::SelectKey,google::dense_hash_map<unsigned int,google_object *,cpp_tommy_inthash_u32,std::equal_to<unsigned int>,google::libc_allocator_with_realloc<std::pair<unsigned int const ,google_object *> > >::SetKey,std::equal_to<unsigned int>,google::libc_allocator_with_realloc<std::pair<unsigned int const ,google_object *> > >::end
PUBLIC	?equals@KeyInfo@?$dense_hashtable@U?$pair@$$CBIPAUgoogle_object@@@std@@IVcpp_tommy_inthash_u32@@USelectKey@?$dense_hash_map@IPAUgoogle_object@@Vcpp_tommy_inthash_u32@@U?$equal_to@I@std@@V?$libc_allocator_with_realloc@U?$pair@$$CBIPAUgoogle_object@@@std@@@google@@@google@@USetKey@56@U?$equal_to@I@2@V?$libc_allocator_with_realloc@U?$pair@$$CBIPAUgoogle_object@@@std@@@6@@google@@QBE_NABI0@Z ; google::dense_hashtable<std::pair<unsigned int const ,google_object *>,unsigned int,cpp_tommy_inthash_u32,google::dense_hash_map<unsigned int,google_object *,cpp_tommy_inthash_u32,std::equal_to<unsigned int>,google::libc_allocator_with_realloc<std::pair<unsigned int const ,google_object *> > >::SelectKey,google::dense_hash_map<unsigned int,google_object *,cpp_tommy_inthash_u32,std::equal_to<unsigned int>,google::libc_allocator_with_realloc<std::pair<unsigned int const ,google_object *> > >::SetKey,std::equal_to<unsigned int>,google::libc_allocator_with_realloc<std::pair<unsigned int const ,google_object *> > >::KeyInfo::equals
PUBLIC	?equals@?$dense_hashtable@U?$pair@$$CBIPAUgoogle_object@@@std@@IVcpp_tommy_inthash_u32@@USelectKey@?$dense_hash_map@IPAUgoogle_object@@Vcpp_tommy_inthash_u32@@U?$equal_to@I@std@@V?$libc_allocator_with_realloc@U?$pair@$$CBIPAUgoogle_object@@@std@@@google@@@google@@USetKey@56@U?$equal_to@I@2@V?$libc_allocator_with_realloc@U?$pair@$$CBIPAUgoogle_object@@@std@@@6@@google@@ABE_NABI0@Z ; google::dense_hashtable<std::pair<unsigned int const ,google_object *>,unsigned int,cpp_tommy_inthash_u32,google::dense_hash_map<unsigned int,google_object *,cpp_tommy_inthash_u32,std::equal_to<unsigned int>,google::libc_allocator_with_realloc<std::pair<unsigned int const ,google_object *> > >::SelectKey,google::dense_hash_map<unsigned int,google_object *,cpp_tommy_inthash_u32,std::equal_to<unsigned int>,google::libc_allocator_with_realloc<std::pair<unsigned int const ,google_object *> > >::SetKey,std::equal_to<unsigned int>,google::libc_allocator_with_realloc<std::pair<unsigned int const ,google_object *> > >::equals
PUBLIC	?test_deleted_key@?$dense_hashtable@U?$pair@$$CBIPAUgoogle_object@@@std@@IVcpp_tommy_inthash_u32@@USelectKey@?$dense_hash_map@IPAUgoogle_object@@Vcpp_tommy_inthash_u32@@U?$equal_to@I@std@@V?$libc_allocator_with_realloc@U?$pair@$$CBIPAUgoogle_object@@@std@@@google@@@google@@USetKey@56@U?$equal_to@I@2@V?$libc_allocator_with_realloc@U?$pair@$$CBIPAUgoogle_object@@@std@@@6@@google@@ABE_NABI@Z ; google::dense_hashtable<std::pair<unsigned int const ,google_object *>,unsigned int,cpp_tommy_inthash_u32,google::dense_hash_map<unsigned int,google_object *,cpp_tommy_inthash_u32,std::equal_to<unsigned int>,google::libc_allocator_with_realloc<std::pair<unsigned int const ,google_object *> > >::SelectKey,google::dense_hash_map<unsigned int,google_object *,cpp_tommy_inthash_u32,std::equal_to<unsigned int>,google::libc_allocator_with_realloc<std::pair<unsigned int const ,google_object *> > >::SetKey,std::equal_to<unsigned int>,google::libc_allocator_with_realloc<std::pair<unsigned int const ,google_object *> > >::test_deleted_key
PUBLIC	??RSelectKey@?$dense_hash_map@IPAUgoogle_object@@Vcpp_tommy_inthash_u32@@U?$equal_to@I@std@@V?$libc_allocator_with_realloc@U?$pair@$$CBIPAUgoogle_object@@@std@@@google@@@google@@QBEABIABU?$pair@$$CBIPAUgoogle_object@@@std@@@Z ; google::dense_hash_map<unsigned int,google_object *,cpp_tommy_inthash_u32,std::equal_to<unsigned int>,google::libc_allocator_with_realloc<std::pair<unsigned int const ,google_object *> > >::SelectKey::operator()
PUBLIC	?get_key@KeyInfo@?$dense_hashtable@U?$pair@$$CBIPAUgoogle_object@@@std@@IVcpp_tommy_inthash_u32@@USelectKey@?$dense_hash_map@IPAUgoogle_object@@Vcpp_tommy_inthash_u32@@U?$equal_to@I@std@@V?$libc_allocator_with_realloc@U?$pair@$$CBIPAUgoogle_object@@@std@@@google@@@google@@USetKey@56@U?$equal_to@I@2@V?$libc_allocator_with_realloc@U?$pair@$$CBIPAUgoogle_object@@@std@@@6@@google@@QBE?BIABU?$pair@$$CBIPAUgoogle_object@@@std@@@Z ; google::dense_hashtable<std::pair<unsigned int const ,google_object *>,unsigned int,cpp_tommy_inthash_u32,google::dense_hash_map<unsigned int,google_object *,cpp_tommy_inthash_u32,std::equal_to<unsigned int>,google::libc_allocator_with_realloc<std::pair<unsigned int const ,google_object *> > >::SelectKey,google::dense_hash_map<unsigned int,google_object *,cpp_tommy_inthash_u32,std::equal_to<unsigned int>,google::libc_allocator_with_realloc<std::pair<unsigned int const ,google_object *> > >::SetKey,std::equal_to<unsigned int>,google::libc_allocator_with_realloc<std::pair<unsigned int const ,google_object *> > >::KeyInfo::get_key
PUBLIC	?get_key@?$dense_hashtable@U?$pair@$$CBIPAUgoogle_object@@@std@@IVcpp_tommy_inthash_u32@@USelectKey@?$dense_hash_map@IPAUgoogle_object@@Vcpp_tommy_inthash_u32@@U?$equal_to@I@std@@V?$libc_allocator_with_realloc@U?$pair@$$CBIPAUgoogle_object@@@std@@@google@@@google@@USetKey@56@U?$equal_to@I@2@V?$libc_allocator_with_realloc@U?$pair@$$CBIPAUgoogle_object@@@std@@@6@@google@@ABE?BIABU?$pair@$$CBIPAUgoogle_object@@@std@@@Z ; google::dense_hashtable<std::pair<unsigned int const ,google_object *>,unsigned int,cpp_tommy_inthash_u32,google::dense_hash_map<unsigned int,google_object *,cpp_tommy_inthash_u32,std::equal_to<unsigned int>,google::libc_allocator_with_realloc<std::pair<unsigned int const ,google_object *> > >::SelectKey,google::dense_hash_map<unsigned int,google_object *,cpp_tommy_inthash_u32,std::equal_to<unsigned int>,google::libc_allocator_with_realloc<std::pair<unsigned int const ,google_object *> > >::SetKey,std::equal_to<unsigned int>,google::libc_allocator_with_realloc<std::pair<unsigned int const ,google_object *> > >::get_key
PUBLIC	?test_deleted@?$dense_hashtable@U?$pair@$$CBIPAUgoogle_object@@@std@@IVcpp_tommy_inthash_u32@@USelectKey@?$dense_hash_map@IPAUgoogle_object@@Vcpp_tommy_inthash_u32@@U?$equal_to@I@std@@V?$libc_allocator_with_realloc@U?$pair@$$CBIPAUgoogle_object@@@std@@@google@@@google@@USetKey@56@U?$equal_to@I@2@V?$libc_allocator_with_realloc@U?$pair@$$CBIPAUgoogle_object@@@std@@@6@@google@@QBE_NABU?$dense_hashtable_iterator@U?$pair@$$CBIPAUgoogle_object@@@std@@IVcpp_tommy_inthash_u32@@USelectKey@?$dense_hash_map@IPAUgoogle_object@@Vcpp_tommy_inthash_u32@@U?$equal_to@I@std@@V?$libc_allocator_with_realloc@U?$pair@$$CBIPAUgoogle_object@@@std@@@google@@@google@@USetKey@56@U?$equal_to@I@2@V?$libc_allocator_with_realloc@U?$pair@$$CBIPAUgoogle_object@@@std@@@6@@2@@Z ; google::dense_hashtable<std::pair<unsigned int const ,google_object *>,unsigned int,cpp_tommy_inthash_u32,google::dense_hash_map<unsigned int,google_object *,cpp_tommy_inthash_u32,std::equal_to<unsigned int>,google::libc_allocator_with_realloc<std::pair<unsigned int const ,google_object *> > >::SelectKey,google::dense_hash_map<unsigned int,google_object *,cpp_tommy_inthash_u32,std::equal_to<unsigned int>,google::libc_allocator_with_realloc<std::pair<unsigned int const ,google_object *> > >::SetKey,std::equal_to<unsigned int>,google::libc_allocator_with_realloc<std::pair<unsigned int const ,google_object *> > >::test_deleted
PUBLIC	??RSetKey@?$dense_hash_map@IPAUgoogle_object@@Vcpp_tommy_inthash_u32@@U?$equal_to@I@std@@V?$libc_allocator_with_realloc@U?$pair@$$CBIPAUgoogle_object@@@std@@@google@@@google@@QBEXPAU?$pair@$$CBIPAUgoogle_object@@@std@@ABI@Z ; google::dense_hash_map<unsigned int,google_object *,cpp_tommy_inthash_u32,std::equal_to<unsigned int>,google::libc_allocator_with_realloc<std::pair<unsigned int const ,google_object *> > >::SetKey::operator()
PUBLIC	?set_key@KeyInfo@?$dense_hashtable@U?$pair@$$CBIPAUgoogle_object@@@std@@IVcpp_tommy_inthash_u32@@USelectKey@?$dense_hash_map@IPAUgoogle_object@@Vcpp_tommy_inthash_u32@@U?$equal_to@I@std@@V?$libc_allocator_with_realloc@U?$pair@$$CBIPAUgoogle_object@@@std@@@google@@@google@@USetKey@56@U?$equal_to@I@2@V?$libc_allocator_with_realloc@U?$pair@$$CBIPAUgoogle_object@@@std@@@6@@google@@QBEXPAU?$pair@$$CBIPAUgoogle_object@@@std@@ABI@Z ; google::dense_hashtable<std::pair<unsigned int const ,google_object *>,unsigned int,cpp_tommy_inthash_u32,google::dense_hash_map<unsigned int,google_object *,cpp_tommy_inthash_u32,std::equal_to<unsigned int>,google::libc_allocator_with_realloc<std::pair<unsigned int const ,google_object *> > >::SelectKey,google::dense_hash_map<unsigned int,google_object *,cpp_tommy_inthash_u32,std::equal_to<unsigned int>,google::libc_allocator_with_realloc<std::pair<unsigned int const ,google_object *> > >::SetKey,std::equal_to<unsigned int>,google::libc_allocator_with_realloc<std::pair<unsigned int const ,google_object *> > >::KeyInfo::set_key
PUBLIC	?set_key@?$dense_hashtable@U?$pair@$$CBIPAUgoogle_object@@@std@@IVcpp_tommy_inthash_u32@@USelectKey@?$dense_hash_map@IPAUgoogle_object@@Vcpp_tommy_inthash_u32@@U?$equal_to@I@std@@V?$libc_allocator_with_realloc@U?$pair@$$CBIPAUgoogle_object@@@std@@@google@@@google@@USetKey@56@U?$equal_to@I@2@V?$libc_allocator_with_realloc@U?$pair@$$CBIPAUgoogle_object@@@std@@@6@@google@@ABEXPAU?$pair@$$CBIPAUgoogle_object@@@std@@ABI@Z ; google::dense_hashtable<std::pair<unsigned int const ,google_object *>,unsigned int,cpp_tommy_inthash_u32,google::dense_hash_map<unsigned int,google_object *,cpp_tommy_inthash_u32,std::equal_to<unsigned int>,google::libc_allocator_with_realloc<std::pair<unsigned int const ,google_object *> > >::SelectKey,google::dense_hash_map<unsigned int,google_object *,cpp_tommy_inthash_u32,std::equal_to<unsigned int>,google::libc_allocator_with_realloc<std::pair<unsigned int const ,google_object *> > >::SetKey,std::equal_to<unsigned int>,google::libc_allocator_with_realloc<std::pair<unsigned int const ,google_object *> > >::set_key
PUBLIC	?set_deleted@?$dense_hashtable@U?$pair@$$CBIPAUgoogle_object@@@std@@IVcpp_tommy_inthash_u32@@USelectKey@?$dense_hash_map@IPAUgoogle_object@@Vcpp_tommy_inthash_u32@@U?$equal_to@I@std@@V?$libc_allocator_with_realloc@U?$pair@$$CBIPAUgoogle_object@@@std@@@google@@@google@@USetKey@56@U?$equal_to@I@2@V?$libc_allocator_with_realloc@U?$pair@$$CBIPAUgoogle_object@@@std@@@6@@google@@AAE_NAAU?$dense_hashtable_iterator@U?$pair@$$CBIPAUgoogle_object@@@std@@IVcpp_tommy_inthash_u32@@USelectKey@?$dense_hash_map@IPAUgoogle_object@@Vcpp_tommy_inthash_u32@@U?$equal_to@I@std@@V?$libc_allocator_with_realloc@U?$pair@$$CBIPAUgoogle_object@@@std@@@google@@@google@@USetKey@56@U?$equal_to@I@2@V?$libc_allocator_with_realloc@U?$pair@$$CBIPAUgoogle_object@@@std@@@6@@2@@Z ; google::dense_hashtable<std::pair<unsigned int const ,google_object *>,unsigned int,cpp_tommy_inthash_u32,google::dense_hash_map<unsigned int,google_object *,cpp_tommy_inthash_u32,std::equal_to<unsigned int>,google::libc_allocator_with_realloc<std::pair<unsigned int const ,google_object *> > >::SelectKey,google::dense_hash_map<unsigned int,google_object *,cpp_tommy_inthash_u32,std::equal_to<unsigned int>,google::libc_allocator_with_realloc<std::pair<unsigned int const ,google_object *> > >::SetKey,std::equal_to<unsigned int>,google::libc_allocator_with_realloc<std::pair<unsigned int const ,google_object *> > >::set_deleted
PUBLIC	?set_consider_shrink@?$sh_hashtable_settings@IVcpp_tommy_inthash_u32@@I$03@@QAEX_N@Z ; sh_hashtable_settings<unsigned int,cpp_tommy_inthash_u32,unsigned int,4>::set_consider_shrink
PUBLIC	?erase@?$dense_hashtable@U?$pair@$$CBIPAUgoogle_object@@@std@@IVcpp_tommy_inthash_u32@@USelectKey@?$dense_hash_map@IPAUgoogle_object@@Vcpp_tommy_inthash_u32@@U?$equal_to@I@std@@V?$libc_allocator_with_realloc@U?$pair@$$CBIPAUgoogle_object@@@std@@@google@@@google@@USetKey@56@U?$equal_to@I@2@V?$libc_allocator_with_realloc@U?$pair@$$CBIPAUgoogle_object@@@std@@@6@@google@@QAEXU?$dense_hashtable_iterator@U?$pair@$$CBIPAUgoogle_object@@@std@@IVcpp_tommy_inthash_u32@@USelectKey@?$dense_hash_map@IPAUgoogle_object@@Vcpp_tommy_inthash_u32@@U?$equal_to@I@std@@V?$libc_allocator_with_realloc@U?$pair@$$CBIPAUgoogle_object@@@std@@@google@@@google@@USetKey@56@U?$equal_to@I@2@V?$libc_allocator_with_realloc@U?$pair@$$CBIPAUgoogle_object@@@std@@@6@@2@@Z ; google::dense_hashtable<std::pair<unsigned int const ,google_object *>,unsigned int,cpp_tommy_inthash_u32,google::dense_hash_map<unsigned int,google_object *,cpp_tommy_inthash_u32,std::equal_to<unsigned int>,google::libc_allocator_with_realloc<std::pair<unsigned int const ,google_object *> > >::SelectKey,google::dense_hash_map<unsigned int,google_object *,cpp_tommy_inthash_u32,std::equal_to<unsigned int>,google::libc_allocator_with_realloc<std::pair<unsigned int const ,google_object *> > >::SetKey,std::equal_to<unsigned int>,google::libc_allocator_with_realloc<std::pair<unsigned int const ,google_object *> > >::erase
PUBLIC	?erase@?$dense_hash_map@IPAUgoogle_object@@Vcpp_tommy_inthash_u32@@U?$equal_to@I@std@@V?$libc_allocator_with_realloc@U?$pair@$$CBIPAUgoogle_object@@@std@@@google@@@google@@QAEXU?$dense_hashtable_iterator@U?$pair@$$CBIPAUgoogle_object@@@std@@IVcpp_tommy_inthash_u32@@USelectKey@?$dense_hash_map@IPAUgoogle_object@@Vcpp_tommy_inthash_u32@@U?$equal_to@I@std@@V?$libc_allocator_with_realloc@U?$pair@$$CBIPAUgoogle_object@@@std@@@google@@@google@@USetKey@56@U?$equal_to@I@2@V?$libc_allocator_with_realloc@U?$pair@$$CBIPAUgoogle_object@@@std@@@6@@2@@Z ; google::dense_hash_map<unsigned int,google_object *,cpp_tommy_inthash_u32,std::equal_to<unsigned int>,google::libc_allocator_with_realloc<std::pair<unsigned int const ,google_object *> > >::erase
PUBLIC	??8?$btree_iterator@V?$btree_node@U?$btree_map_params@IPAUgoogle_object@@U?$less@I@std@@V?$allocator@U?$pair@$$CBIPAUgoogle_object@@@std@@@3@$0BAA@@btree@@@btree@@AAU?$pair@$$CBIPAUgoogle_object@@@std@@PAU34@@btree@@QBE_NABU?$btree_iterator@$$CBV?$btree_node@U?$btree_map_params@IPAUgoogle_object@@U?$less@I@std@@V?$allocator@U?$pair@$$CBIPAUgoogle_object@@@std@@@3@$0BAA@@btree@@@btree@@ABU?$pair@$$CBIPAUgoogle_object@@@std@@PBU34@@1@@Z ; btree::btree_iterator<btree::btree_node<btree::btree_map_params<unsigned int,google_object *,std::less<unsigned int>,std::allocator<std::pair<unsigned int const ,google_object *> >,256> >,std::pair<unsigned int const ,google_object *> &,std::pair<unsigned int const ,google_object *> *>::operator==
PUBLIC	?value@?$btree_node@U?$btree_map_params@IPAUgoogle_object@@U?$less@I@std@@V?$allocator@U?$pair@$$CBIPAUgoogle_object@@@std@@@3@$0BAA@@btree@@@btree@@QAEAAU?$pair@$$CBIPAUgoogle_object@@@std@@H@Z ; btree::btree_node<btree::btree_map_params<unsigned int,google_object *,std::less<unsigned int>,std::allocator<std::pair<unsigned int const ,google_object *> >,256> >::value
PUBLIC	??C?$btree_iterator@V?$btree_node@U?$btree_map_params@IPAUgoogle_object@@U?$less@I@std@@V?$allocator@U?$pair@$$CBIPAUgoogle_object@@@std@@@3@$0BAA@@btree@@@btree@@AAU?$pair@$$CBIPAUgoogle_object@@@std@@PAU34@@btree@@QBEPAU?$pair@$$CBIPAUgoogle_object@@@std@@XZ ; btree::btree_iterator<btree::btree_node<btree::btree_map_params<unsigned int,google_object *,std::less<unsigned int>,std::allocator<std::pair<unsigned int const ,google_object *> >,256> >,std::pair<unsigned int const ,google_object *> &,std::pair<unsigned int const ,google_object *> *>::operator->
PUBLIC	?end@?$btree_container@V?$btree@U?$btree_map_params@IPAUgoogle_object@@U?$less@I@std@@V?$allocator@U?$pair@$$CBIPAUgoogle_object@@@std@@@3@$0BAA@@0@@btree@@@btree@@QAE?AU?$btree_iterator@V?$btree_node@U?$btree_map_params@IPAUgoogle_object@@U?$less@I@std@@V?$allocator@U?$pair@$$CBIPAUgoogle_object@@@std@@@3@$0BAA@@btree@@@btree@@AAU?$pair@$$CBIPAUgoogle_object@@@std@@PAU34@@2@XZ ; btree::btree_container<btree::btree<btree::btree_map_params<unsigned int,google_object *,std::less<unsigned int>,std::allocator<std::pair<unsigned int const ,google_object *> >,256> > >::end
PUBLIC	?internal_end@?$btree@U?$btree_map_params@IPAUgoogle_object@@U?$less@I@std@@V?$allocator@U?$pair@$$CBIPAUgoogle_object@@@std@@@3@$0BAA@@0@@btree@@AAE?AU?$btree_iterator@V?$btree_node@U?$btree_map_params@IPAUgoogle_object@@U?$less@I@std@@V?$allocator@U?$pair@$$CBIPAUgoogle_object@@@std@@@3@$0BAA@@btree@@@btree@@AAU?$pair@$$CBIPAUgoogle_object@@@std@@PAU34@@2@U32@@Z ; btree::btree<btree::btree_map_params<unsigned int,google_object *,std::less<unsigned int>,std::allocator<std::pair<unsigned int const ,google_object *> >,256> >::internal_end
PUBLIC	?key@?$btree_iterator@V?$btree_node@U?$btree_map_params@IPAUgoogle_object@@U?$less@I@std@@V?$allocator@U?$pair@$$CBIPAUgoogle_object@@@std@@@3@$0BAA@@btree@@@btree@@AAU?$pair@$$CBIPAUgoogle_object@@@std@@PAU34@@btree@@QBEABIXZ ; btree::btree_iterator<btree::btree_node<btree::btree_map_params<unsigned int,google_object *,std::less<unsigned int>,std::allocator<std::pair<unsigned int const ,google_object *> >,256> >,std::pair<unsigned int const ,google_object *> &,std::pair<unsigned int const ,google_object *> *>::key
PUBLIC	?compare_keys@?$btree@U?$btree_map_params@IPAUgoogle_object@@U?$less@I@std@@V?$allocator@U?$pair@$$CBIPAUgoogle_object@@@std@@@3@$0BAA@@0@@btree@@QBE_NABI0@Z ; btree::btree<btree::btree_map_params<unsigned int,google_object *,std::less<unsigned int>,std::allocator<std::pair<unsigned int const ,google_object *> >,256> >::compare_keys
PUBLIC	?key_comp@?$btree@U?$btree_map_params@IPAUgoogle_object@@U?$less@I@std@@V?$allocator@U?$pair@$$CBIPAUgoogle_object@@@std@@@3@$0BAA@@0@@btree@@QBEABU?$btree_key_compare_to_adapter@U?$less@I@std@@@2@XZ ; btree::btree<btree::btree_map_params<unsigned int,google_object *,std::less<unsigned int>,std::allocator<std::pair<unsigned int const ,google_object *> >,256> >::key_comp
PUBLIC	??0?$btree_key_compare_to_adapter@U?$less@I@std@@@btree@@QAE@ABU01@@Z ; btree::btree_key_compare_to_adapter<std::less<unsigned int> >::btree_key_compare_to_adapter<std::less<unsigned int> >
PUBLIC	?key@?$btree_map_params@IPAUgoogle_object@@U?$less@I@std@@V?$allocator@U?$pair@$$CBIPAUgoogle_object@@@std@@@3@$0BAA@@btree@@SAABIABU?$pair@IPAUgoogle_object@@@std@@@Z ; btree::btree_map_params<unsigned int,google_object *,std::less<unsigned int>,std::allocator<std::pair<unsigned int const ,google_object *> >,256>::key
PUBLIC	?key@?$btree_node@U?$btree_map_params@IPAUgoogle_object@@U?$less@I@std@@V?$allocator@U?$pair@$$CBIPAUgoogle_object@@@std@@@3@$0BAA@@btree@@@btree@@QBEABIH@Z ; btree::btree_node<btree::btree_map_params<unsigned int,google_object *,std::less<unsigned int>,std::allocator<std::pair<unsigned int const ,google_object *> >,256> >::key
PUBLIC	?bool_compare@?$btree_key_comparer@IU?$btree_key_compare_to_adapter@U?$less@I@std@@@btree@@$0A@@btree@@SA_NABU?$btree_key_compare_to_adapter@U?$less@I@std@@@2@ABI1@Z ; btree::btree_key_comparer<unsigned int,btree::btree_key_compare_to_adapter<std::less<unsigned int> >,0>::bool_compare
PUBLIC	??$linear_search_plain_compare@U?$btree_key_compare_to_adapter@U?$less@I@std@@@btree@@@?$btree_node@U?$btree_map_params@IPAUgoogle_object@@U?$less@I@std@@V?$allocator@U?$pair@$$CBIPAUgoogle_object@@@std@@@3@$0BAA@@btree@@@btree@@QBEHABIHHABU?$btree_key_compare_to_adapter@U?$less@I@std@@@1@@Z ; btree::btree_node<btree::btree_map_params<unsigned int,google_object *,std::less<unsigned int>,std::allocator<std::pair<unsigned int const ,google_object *> >,256> >::linear_search_plain_compare<btree::btree_key_compare_to_adapter<std::less<unsigned int> > >
PUBLIC	?lower_bound@?$btree_linear_search_plain_compare@IV?$btree_node@U?$btree_map_params@IPAUgoogle_object@@U?$less@I@std@@V?$allocator@U?$pair@$$CBIPAUgoogle_object@@@std@@@3@$0BAA@@btree@@@btree@@U?$btree_key_compare_to_adapter@U?$less@I@std@@@2@@btree@@SAHABIABV?$btree_node@U?$btree_map_params@IPAUgoogle_object@@U?$less@I@std@@V?$allocator@U?$pair@$$CBIPAUgoogle_object@@@std@@@3@$0BAA@@btree@@@2@U?$btree_key_compare_to_adapter@U?$less@I@std@@@2@@Z ; btree::btree_linear_search_plain_compare<unsigned int,btree::btree_node<btree::btree_map_params<unsigned int,google_object *,std::less<unsigned int>,std::allocator<std::pair<unsigned int const ,google_object *> >,256> >,btree::btree_key_compare_to_adapter<std::less<unsigned int> > >::lower_bound
PUBLIC	??$lower_bound@U?$btree_key_compare_to_adapter@U?$less@I@std@@@btree@@@?$btree_node@U?$btree_map_params@IPAUgoogle_object@@U?$less@I@std@@V?$allocator@U?$pair@$$CBIPAUgoogle_object@@@std@@@3@$0BAA@@btree@@@btree@@QBEHABIABU?$btree_key_compare_to_adapter@U?$less@I@std@@@1@@Z ; btree::btree_node<btree::btree_map_params<unsigned int,google_object *,std::less<unsigned int>,std::allocator<std::pair<unsigned int const ,google_object *> >,256> >::lower_bound<btree::btree_key_compare_to_adapter<std::less<unsigned int> > >
PUBLIC	??$forward@AAU?$btree_iterator@V?$btree_node@U?$btree_map_params@IPAUgoogle_object@@U?$less@I@std@@V?$allocator@U?$pair@$$CBIPAUgoogle_object@@@std@@@3@$0BAA@@btree@@@btree@@AAU?$pair@$$CBIPAUgoogle_object@@@std@@PAU34@@btree@@@std@@YAAAU?$btree_iterator@V?$btree_node@U?$btree_map_params@IPAUgoogle_object@@U?$less@I@std@@V?$allocator@U?$pair@$$CBIPAUgoogle_object@@@std@@@3@$0BAA@@btree@@@btree@@AAU?$pair@$$CBIPAUgoogle_object@@@std@@PAU34@@btree@@AAU12@@Z ; std::forward<btree::btree_iterator<btree::btree_node<btree::btree_map_params<unsigned int,google_object *,std::less<unsigned int>,std::allocator<std::pair<unsigned int const ,google_object *> >,256> >,std::pair<unsigned int const ,google_object *> &,std::pair<unsigned int const ,google_object *> *> &>
PUBLIC	??$forward@H@std@@YA$$QAHAAH@Z			; std::forward<int>
PUBLIC	??$?0AAU?$btree_iterator@V?$btree_node@U?$btree_map_params@IPAUgoogle_object@@U?$less@I@std@@V?$allocator@U?$pair@$$CBIPAUgoogle_object@@@std@@@3@$0BAA@@btree@@@btree@@AAU?$pair@$$CBIPAUgoogle_object@@@std@@PAU34@@btree@@H@?$_Pair_base@U?$btree_iterator@V?$btree_node@U?$btree_map_params@IPAUgoogle_object@@U?$less@I@std@@V?$allocator@U?$pair@$$CBIPAUgoogle_object@@@std@@@3@$0BAA@@btree@@@btree@@AAU?$pair@$$CBIPAUgoogle_object@@@std@@PAU34@@btree@@H@std@@QAE@AAU?$btree_iterator@V?$btree_node@U?$btree_map_params@IPAUgoogle_object@@U?$less@I@std@@V?$allocator@U?$pair@$$CBIPAUgoogle_object@@@std@@@3@$0BAA@@btree@@@btree@@AAU?$pair@$$CBIPAUgoogle_object@@@std@@PAU34@@btree@@$$QAH@Z ; std::_Pair_base<btree::btree_iterator<btree::btree_node<btree::btree_map_params<unsigned int,google_object *,std::less<unsigned int>,std::allocator<std::pair<unsigned int const ,google_object *> >,256> >,std::pair<unsigned int const ,google_object *> &,std::pair<unsigned int const ,google_object *> *>,int>::_Pair_base<btree::btree_iterator<btree::btree_node<btree::btree_map_params<unsigned int,google_object *,std::less<unsigned int>,std::allocator<std::pair<unsigned int const ,google_object *> >,256> >,std::pair<unsigned int const ,google_object *> &,std::pair<unsigned int const ,google_object *> *>,int><btree::btree_iterator<btree::btree_node<btree::btree_map_params<unsigned int,google_object *,std::less<unsigned int>,std::allocator<std::pair<unsigned int const ,google_object *> >,256> >,std::pair<unsigned int const ,google_object *> &,std::pair<unsigned int const ,google_object *> *> &,int>
PUBLIC	??$?0AAU?$btree_iterator@V?$btree_node@U?$btree_map_params@IPAUgoogle_object@@U?$less@I@std@@V?$allocator@U?$pair@$$CBIPAUgoogle_object@@@std@@@3@$0BAA@@btree@@@btree@@AAU?$pair@$$CBIPAUgoogle_object@@@std@@PAU34@@btree@@H@?$pair@U?$btree_iterator@V?$btree_node@U?$btree_map_params@IPAUgoogle_object@@U?$less@I@std@@V?$allocator@U?$pair@$$CBIPAUgoogle_object@@@std@@@3@$0BAA@@btree@@@btree@@AAU?$pair@$$CBIPAUgoogle_object@@@std@@PAU34@@btree@@H@std@@QAE@AAU?$btree_iterator@V?$btree_node@U?$btree_map_params@IPAUgoogle_object@@U?$less@I@std@@V?$allocator@U?$pair@$$CBIPAUgoogle_object@@@std@@@3@$0BAA@@btree@@@btree@@AAU?$pair@$$CBIPAUgoogle_object@@@std@@PAU34@@btree@@$$QAH@Z ; std::pair<btree::btree_iterator<btree::btree_node<btree::btree_map_params<unsigned int,google_object *,std::less<unsigned int>,std::allocator<std::pair<unsigned int const ,google_object *> >,256> >,std::pair<unsigned int const ,google_object *> &,std::pair<unsigned int const ,google_object *> *>,int>::pair<btree::btree_iterator<btree::btree_node<btree::btree_map_params<unsigned int,google_object *,std::less<unsigned int>,std::allocator<std::pair<unsigned int const ,google_object *> >,256> >,std::pair<unsigned int const ,google_object *> &,std::pair<unsigned int const ,google_object *> *>,int><btree::btree_iterator<btree::btree_node<btree::btree_map_params<unsigned int,google_object *,std::less<unsigned int>,std::allocator<std::pair<unsigned int const ,google_object *> >,256> >,std::pair<unsigned int const ,google_object *> &,std::pair<unsigned int const ,google_object *> *> &,int>
PUBLIC	??$make_pair@AAU?$btree_iterator@V?$btree_node@U?$btree_map_params@IPAUgoogle_object@@U?$less@I@std@@V?$allocator@U?$pair@$$CBIPAUgoogle_object@@@std@@@3@$0BAA@@btree@@@btree@@AAU?$pair@$$CBIPAUgoogle_object@@@std@@PAU34@@btree@@H@std@@YA?AU?$pair@U?$btree_iterator@V?$btree_node@U?$btree_map_params@IPAUgoogle_object@@U?$less@I@std@@V?$allocator@U?$pair@$$CBIPAUgoogle_object@@@std@@@3@$0BAA@@btree@@@btree@@AAU?$pair@$$CBIPAUgoogle_object@@@std@@PAU34@@btree@@H@0@AAU?$btree_iterator@V?$btree_node@U?$btree_map_params@IPAUgoogle_object@@U?$less@I@std@@V?$allocator@U?$pair@$$CBIPAUgoogle_object@@@std@@@3@$0BAA@@btree@@@btree@@AAU?$pair@$$CBIPAUgoogle_object@@@std@@PAU34@@btree@@$$QAH@Z ; std::make_pair<btree::btree_iterator<btree::btree_node<btree::btree_map_params<unsigned int,google_object *,std::less<unsigned int>,std::allocator<std::pair<unsigned int const ,google_object *> >,256> >,std::pair<unsigned int const ,google_object *> &,std::pair<unsigned int const ,google_object *> *> &,int>
PUBLIC	??$internal_locate_plain_compare@U?$btree_iterator@V?$btree_node@U?$btree_map_params@IPAUgoogle_object@@U?$less@I@std@@V?$allocator@U?$pair@$$CBIPAUgoogle_object@@@std@@@3@$0BAA@@btree@@@btree@@AAU?$pair@$$CBIPAUgoogle_object@@@std@@PAU34@@btree@@@?$btree@U?$btree_map_params@IPAUgoogle_object@@U?$less@I@std@@V?$allocator@U?$pair@$$CBIPAUgoogle_object@@@std@@@3@$0BAA@@0@@btree@@ABE?AU?$pair@U?$btree_iterator@V?$btree_node@U?$btree_map_params@IPAUgoogle_object@@U?$less@I@std@@V?$allocator@U?$pair@$$CBIPAUgoogle_object@@@std@@@3@$0BAA@@btree@@@btree@@AAU?$pair@$$CBIPAUgoogle_object@@@std@@PAU34@@btree@@H@std@@ABIU?$btree_iterator@V?$btree_node@U?$btree_map_params@IPAUgoogle_object@@U?$less@I@std@@V?$allocator@U?$pair@$$CBIPAUgoogle_object@@@std@@@3@$0BAA@@btree@@@btree@@AAU?$pair@$$CBIPAUgoogle_object@@@std@@PAU34@@1@@Z ; btree::btree<btree::btree_map_params<unsigned int,google_object *,std::less<unsigned int>,std::allocator<std::pair<unsigned int const ,google_object *> >,256> >::internal_locate_plain_compare<btree::btree_iterator<btree::btree_node<btree::btree_map_params<unsigned int,google_object *,std::less<unsigned int>,std::allocator<std::pair<unsigned int const ,google_object *> >,256> >,std::pair<unsigned int const ,google_object *> &,std::pair<unsigned int const ,google_object *> *> >
PUBLIC	??$dispatch@IV?$btree@U?$btree_map_params@IPAUgoogle_object@@U?$less@I@std@@V?$allocator@U?$pair@$$CBIPAUgoogle_object@@@std@@@3@$0BAA@@0@@btree@@U?$btree_iterator@V?$btree_node@U?$btree_map_params@IPAUgoogle_object@@U?$less@I@std@@V?$allocator@U?$pair@$$CBIPAUgoogle_object@@@std@@@3@$0BAA@@btree@@@btree@@AAU?$pair@$$CBIPAUgoogle_object@@@std@@PAU34@@2@@btree_internal_locate_plain_compare@btree@@SA?AU?$pair@U?$btree_iterator@V?$btree_node@U?$btree_map_params@IPAUgoogle_object@@U?$less@I@std@@V?$allocator@U?$pair@$$CBIPAUgoogle_object@@@std@@@3@$0BAA@@btree@@@btree@@AAU?$pair@$$CBIPAUgoogle_object@@@std@@PAU34@@btree@@H@std@@ABIABV?$btree@U?$btree_map_params@IPAUgoogle_object@@U?$less@I@std@@V?$allocator@U?$pair@$$CBIPAUgoogle_object@@@std@@@3@$0BAA@@0@@1@U?$btree_iterator@V?$btree_node@U?$btree_map_params@IPAUgoogle_object@@U?$less@I@std@@V?$allocator@U?$pair@$$CBIPAUgoogle_object@@@std@@@3@$0BAA@@btree@@@btree@@AAU?$pair@$$CBIPAUgoogle_object@@@std@@PAU34@@1@@Z ; btree::btree_internal_locate_plain_compare::dispatch<unsigned int,btree::btree<btree::btree_map_params<unsigned int,google_object *,std::less<unsigned int>,std::allocator<std::pair<unsigned int const ,google_object *> >,256> >,btree::btree_iterator<btree::btree_node<btree::btree_map_params<unsigned int,google_object *,std::less<unsigned int>,std::allocator<std::pair<unsigned int const ,google_object *> >,256> >,std::pair<unsigned int const ,google_object *> &,std::pair<unsigned int const ,google_object *> *> >
PUBLIC	??$internal_locate@U?$btree_iterator@V?$btree_node@U?$btree_map_params@IPAUgoogle_object@@U?$less@I@std@@V?$allocator@U?$pair@$$CBIPAUgoogle_object@@@std@@@3@$0BAA@@btree@@@btree@@AAU?$pair@$$CBIPAUgoogle_object@@@std@@PAU34@@btree@@@?$btree@U?$btree_map_params@IPAUgoogle_object@@U?$less@I@std@@V?$allocator@U?$pair@$$CBIPAUgoogle_object@@@std@@@3@$0BAA@@0@@btree@@ABE?AU?$pair@U?$btree_iterator@V?$btree_node@U?$btree_map_params@IPAUgoogle_object@@U?$less@I@std@@V?$allocator@U?$pair@$$CBIPAUgoogle_object@@@std@@@3@$0BAA@@btree@@@btree@@AAU?$pair@$$CBIPAUgoogle_object@@@std@@PAU34@@btree@@H@std@@ABIU?$btree_iterator@V?$btree_node@U?$btree_map_params@IPAUgoogle_object@@U?$less@I@std@@V?$allocator@U?$pair@$$CBIPAUgoogle_object@@@std@@@3@$0BAA@@btree@@@btree@@AAU?$pair@$$CBIPAUgoogle_object@@@std@@PAU34@@1@@Z ; btree::btree<btree::btree_map_params<unsigned int,google_object *,std::less<unsigned int>,std::allocator<std::pair<unsigned int const ,google_object *> >,256> >::internal_locate<btree::btree_iterator<btree::btree_node<btree::btree_map_params<unsigned int,google_object *,std::less<unsigned int>,std::allocator<std::pair<unsigned int const ,google_object *> >,256> >,std::pair<unsigned int const ,google_object *> &,std::pair<unsigned int const ,google_object *> *> >
PUBLIC	??$internal_last@U?$btree_iterator@V?$btree_node@U?$btree_map_params@IPAUgoogle_object@@U?$less@I@std@@V?$allocator@U?$pair@$$CBIPAUgoogle_object@@@std@@@3@$0BAA@@btree@@@btree@@AAU?$pair@$$CBIPAUgoogle_object@@@std@@PAU34@@btree@@@?$btree@U?$btree_map_params@IPAUgoogle_object@@U?$less@I@std@@V?$allocator@U?$pair@$$CBIPAUgoogle_object@@@std@@@3@$0BAA@@0@@btree@@CA?AU?$btree_iterator@V?$btree_node@U?$btree_map_params@IPAUgoogle_object@@U?$less@I@std@@V?$allocator@U?$pair@$$CBIPAUgoogle_object@@@std@@@3@$0BAA@@btree@@@btree@@AAU?$pair@$$CBIPAUgoogle_object@@@std@@PAU34@@1@U21@@Z ; btree::btree<btree::btree_map_params<unsigned int,google_object *,std::less<unsigned int>,std::allocator<std::pair<unsigned int const ,google_object *> >,256> >::internal_last<btree::btree_iterator<btree::btree_node<btree::btree_map_params<unsigned int,google_object *,std::less<unsigned int>,std::allocator<std::pair<unsigned int const ,google_object *> >,256> >,std::pair<unsigned int const ,google_object *> &,std::pair<unsigned int const ,google_object *> *> >
PUBLIC	??$internal_find_unique@U?$btree_iterator@V?$btree_node@U?$btree_map_params@IPAUgoogle_object@@U?$less@I@std@@V?$allocator@U?$pair@$$CBIPAUgoogle_object@@@std@@@3@$0BAA@@btree@@@btree@@AAU?$pair@$$CBIPAUgoogle_object@@@std@@PAU34@@btree@@@?$btree@U?$btree_map_params@IPAUgoogle_object@@U?$less@I@std@@V?$allocator@U?$pair@$$CBIPAUgoogle_object@@@std@@@3@$0BAA@@0@@btree@@ABE?AU?$btree_iterator@V?$btree_node@U?$btree_map_params@IPAUgoogle_object@@U?$less@I@std@@V?$allocator@U?$pair@$$CBIPAUgoogle_object@@@std@@@3@$0BAA@@btree@@@btree@@AAU?$pair@$$CBIPAUgoogle_object@@@std@@PAU34@@1@ABIU21@@Z ; btree::btree<btree::btree_map_params<unsigned int,google_object *,std::less<unsigned int>,std::allocator<std::pair<unsigned int const ,google_object *> >,256> >::internal_find_unique<btree::btree_iterator<btree::btree_node<btree::btree_map_params<unsigned int,google_object *,std::less<unsigned int>,std::allocator<std::pair<unsigned int const ,google_object *> >,256> >,std::pair<unsigned int const ,google_object *> &,std::pair<unsigned int const ,google_object *> *> >
PUBLIC	?find_unique@?$btree@U?$btree_map_params@IPAUgoogle_object@@U?$less@I@std@@V?$allocator@U?$pair@$$CBIPAUgoogle_object@@@std@@@3@$0BAA@@0@@btree@@QAE?AU?$btree_iterator@V?$btree_node@U?$btree_map_params@IPAUgoogle_object@@U?$less@I@std@@V?$allocator@U?$pair@$$CBIPAUgoogle_object@@@std@@@3@$0BAA@@btree@@@btree@@AAU?$pair@$$CBIPAUgoogle_object@@@std@@PAU34@@2@ABI@Z ; btree::btree<btree::btree_map_params<unsigned int,google_object *,std::less<unsigned int>,std::allocator<std::pair<unsigned int const ,google_object *> >,256> >::find_unique
PUBLIC	?find@?$btree_unique_container@V?$btree@U?$btree_map_params@IPAUgoogle_object@@U?$less@I@std@@V?$allocator@U?$pair@$$CBIPAUgoogle_object@@@std@@@3@$0BAA@@0@@btree@@@btree@@QAE?AU?$btree_iterator@V?$btree_node@U?$btree_map_params@IPAUgoogle_object@@U?$less@I@std@@V?$allocator@U?$pair@$$CBIPAUgoogle_object@@@std@@@3@$0BAA@@btree@@@btree@@AAU?$pair@$$CBIPAUgoogle_object@@@std@@PAU34@@2@ABI@Z ; btree::btree_unique_container<btree::btree<btree::btree_map_params<unsigned int,google_object *,std::less<unsigned int>,std::allocator<std::pair<unsigned int const ,google_object *> >,256> > >::find
PUBLIC	?increment_slow@?$btree_iterator@V?$btree_node@U?$btree_map_params@IPAUgoogle_object@@U?$less@I@std@@V?$allocator@U?$pair@$$CBIPAUgoogle_object@@@std@@@3@$0BAA@@btree@@@btree@@AAU?$pair@$$CBIPAUgoogle_object@@@std@@PAU34@@btree@@QAEXXZ ; btree::btree_iterator<btree::btree_node<btree::btree_map_params<unsigned int,google_object *,std::less<unsigned int>,std::allocator<std::pair<unsigned int const ,google_object *> >,256> >,std::pair<unsigned int const ,google_object *> &,std::pair<unsigned int const ,google_object *> *>::increment_slow
PUBLIC	?increment@?$btree_iterator@V?$btree_node@U?$btree_map_params@IPAUgoogle_object@@U?$less@I@std@@V?$allocator@U?$pair@$$CBIPAUgoogle_object@@@std@@@3@$0BAA@@btree@@@btree@@AAU?$pair@$$CBIPAUgoogle_object@@@std@@PAU34@@btree@@QAEXXZ ; btree::btree_iterator<btree::btree_node<btree::btree_map_params<unsigned int,google_object *,std::less<unsigned int>,std::allocator<std::pair<unsigned int const ,google_object *> >,256> >,std::pair<unsigned int const ,google_object *> &,std::pair<unsigned int const ,google_object *> *>::increment
PUBLIC	??E?$btree_iterator@V?$btree_node@U?$btree_map_params@IPAUgoogle_object@@U?$less@I@std@@V?$allocator@U?$pair@$$CBIPAUgoogle_object@@@std@@@3@$0BAA@@btree@@@btree@@AAU?$pair@$$CBIPAUgoogle_object@@@std@@PAU34@@btree@@QAEAAU01@XZ ; btree::btree_iterator<btree::btree_node<btree::btree_map_params<unsigned int,google_object *,std::less<unsigned int>,std::allocator<std::pair<unsigned int const ,google_object *> >,256> >,std::pair<unsigned int const ,google_object *> &,std::pair<unsigned int const ,google_object *> *>::operator++
PUBLIC	?is_root@?$btree_node@U?$btree_map_params@IPAUgoogle_object@@U?$less@I@std@@V?$allocator@U?$pair@$$CBIPAUgoogle_object@@@std@@@3@$0BAA@@btree@@@btree@@QBE_NXZ ; btree::btree_node<btree::btree_map_params<unsigned int,google_object *,std::less<unsigned int>,std::allocator<std::pair<unsigned int const ,google_object *> >,256> >::is_root
PUBLIC	??0?$btree_iterator@V?$btree_node@U?$btree_map_params@IPAUgoogle_object@@U?$less@I@std@@V?$allocator@U?$pair@$$CBIPAUgoogle_object@@@std@@@3@$0BAA@@btree@@@btree@@AAU?$pair@$$CBIPAUgoogle_object@@@std@@PAU34@@btree@@QAE@ABU01@@Z ; btree::btree_iterator<btree::btree_node<btree::btree_map_params<unsigned int,google_object *,std::less<unsigned int>,std::allocator<std::pair<unsigned int const ,google_object *> >,256> >,std::pair<unsigned int const ,google_object *> &,std::pair<unsigned int const ,google_object *> *>::btree_iterator<btree::btree_node<btree::btree_map_params<unsigned int,google_object *,std::less<unsigned int>,std::allocator<std::pair<unsigned int const ,google_object *> >,256> >,std::pair<unsigned int const ,google_object *> &,std::pair<unsigned int const ,google_object *> *>
PUBLIC	?decrement_slow@?$btree_iterator@V?$btree_node@U?$btree_map_params@IPAUgoogle_object@@U?$less@I@std@@V?$allocator@U?$pair@$$CBIPAUgoogle_object@@@std@@@3@$0BAA@@btree@@@btree@@AAU?$pair@$$CBIPAUgoogle_object@@@std@@PAU34@@btree@@QAEXXZ ; btree::btree_iterator<btree::btree_node<btree::btree_map_params<unsigned int,google_object *,std::less<unsigned int>,std::allocator<std::pair<unsigned int const ,google_object *> >,256> >,std::pair<unsigned int const ,google_object *> &,std::pair<unsigned int const ,google_object *> *>::decrement_slow
PUBLIC	?decrement@?$btree_iterator@V?$btree_node@U?$btree_map_params@IPAUgoogle_object@@U?$less@I@std@@V?$allocator@U?$pair@$$CBIPAUgoogle_object@@@std@@@3@$0BAA@@btree@@@btree@@AAU?$pair@$$CBIPAUgoogle_object@@@std@@PAU34@@btree@@QAEXXZ ; btree::btree_iterator<btree::btree_node<btree::btree_map_params<unsigned int,google_object *,std::less<unsigned int>,std::allocator<std::pair<unsigned int const ,google_object *> >,256> >,std::pair<unsigned int const ,google_object *> &,std::pair<unsigned int const ,google_object *> *>::decrement
PUBLIC	??F?$btree_iterator@V?$btree_node@U?$btree_map_params@IPAUgoogle_object@@U?$less@I@std@@V?$allocator@U?$pair@$$CBIPAUgoogle_object@@@std@@@3@$0BAA@@btree@@@btree@@AAU?$pair@$$CBIPAUgoogle_object@@@std@@PAU34@@btree@@QAEAAU01@XZ ; btree::btree_iterator<btree::btree_node<btree::btree_map_params<unsigned int,google_object *,std::less<unsigned int>,std::allocator<std::pair<unsigned int const ,google_object *> >,256> >,std::pair<unsigned int const ,google_object *> &,std::pair<unsigned int const ,google_object *> *>::operator--
PUBLIC	??F?$btree_iterator@V?$btree_node@U?$btree_map_params@IPAUgoogle_object@@U?$less@I@std@@V?$allocator@U?$pair@$$CBIPAUgoogle_object@@@std@@@3@$0BAA@@btree@@@btree@@AAU?$pair@$$CBIPAUgoogle_object@@@std@@PAU34@@btree@@QAE?AU01@H@Z ; btree::btree_iterator<btree::btree_node<btree::btree_map_params<unsigned int,google_object *,std::less<unsigned int>,std::allocator<std::pair<unsigned int const ,google_object *> >,256> >,std::pair<unsigned int const ,google_object *> &,std::pair<unsigned int const ,google_object *> *>::operator--
